; ModuleID = 'set_partition.cpp'
source_filename = "set_partition.cpp"
target datalayout = "e-m:e-p270:32:32-p271:32:32-p272:64:64-i64:64-f80:128-n8:16:32:64-S128"
target triple = "x86_64-pc-linux-gnu"

%"class.std::ios_base::Init" = type { i8 }
%"class.std::basic_ostream" = type { i32 (...)**, %"class.std::basic_ios" }
%"class.std::basic_ios" = type { %"class.std::ios_base", %"class.std::basic_ostream"*, i8, i8, %"class.std::basic_streambuf"*, %"class.std::ctype"*, %"class.std::num_put"*, %"class.std::num_get"* }
%"class.std::ios_base" = type { i32 (...)**, i64, i64, i32, i32, i32, %"struct.std::ios_base::_Callback_list"*, %"struct.std::ios_base::_Words", [8 x %"struct.std::ios_base::_Words"], i32, %"struct.std::ios_base::_Words"*, %"class.std::locale" }
%"struct.std::ios_base::_Callback_list" = type { %"struct.std::ios_base::_Callback_list"*, void (i32, %"class.std::ios_base"*, i32)*, i32, i32 }
%"struct.std::ios_base::_Words" = type { i8*, i64 }
%"class.std::locale" = type { %"class.std::locale::_Impl"* }
%"class.std::locale::_Impl" = type { i32, %"class.std::locale::facet"**, i64, %"class.std::locale::facet"**, i8** }
%"class.std::locale::facet" = type <{ i32 (...)**, i32, [4 x i8] }>
%"class.std::basic_streambuf" = type { i32 (...)**, i8*, i8*, i8*, i8*, i8*, i8*, %"class.std::locale" }
%"class.std::ctype" = type <{ %"class.std::locale::facet.base", [4 x i8], %struct.__locale_struct*, i8, [7 x i8], i32*, i32*, i16*, i8, [256 x i8], [256 x i8], i8, [6 x i8] }>
%"class.std::locale::facet.base" = type <{ i32 (...)**, i32 }>
%struct.__locale_struct = type { [13 x %struct.__locale_data*], i16*, i32*, i32*, [13 x i8*] }
%struct.__locale_data = type opaque
%"class.std::num_put" = type { %"class.std::locale::facet.base", [4 x i8] }
%"class.std::num_get" = type { %"class.std::locale::facet.base", [4 x i8] }
%class.anon = type { i32* }
%"class.std::vector" = type { %"struct.std::_Vector_base" }
%"struct.std::_Vector_base" = type { %"struct.std::_Vector_base<int, std::allocator<int>>::_Vector_impl" }
%"struct.std::_Vector_base<int, std::allocator<int>>::_Vector_impl" = type { %"struct.std::_Vector_base<int, std::allocator<int>>::_Vector_impl_data" }
%"struct.std::_Vector_base<int, std::allocator<int>>::_Vector_impl_data" = type { i32*, i32*, i32* }
%"class.std::function" = type { %"class.std::_Function_base", void (%"union.std::_Any_data"*, %"class.std::vector.0"*)* }
%"class.std::_Function_base" = type { %"union.std::_Any_data", i1 (%"union.std::_Any_data"*, %"union.std::_Any_data"*, i32)* }
%"union.std::_Any_data" = type { %"union.std::_Nocopy_types" }
%"union.std::_Nocopy_types" = type { { i64, i64 } }
%"class.std::vector.0" = type { %"struct.std::_Vector_base.1" }
%"struct.std::_Vector_base.1" = type { %"struct.std::_Vector_base<std::vector<int>, std::allocator<std::vector<int>>>::_Vector_impl" }
%"struct.std::_Vector_base<std::vector<int>, std::allocator<std::vector<int>>>::_Vector_impl" = type { %"struct.std::_Vector_base<std::vector<int>, std::allocator<std::vector<int>>>::_Vector_impl_data" }
%"struct.std::_Vector_base<std::vector<int>, std::allocator<std::vector<int>>>::_Vector_impl_data" = type { %"class.std::vector"*, %"class.std::vector"*, %"class.std::vector"* }
%"class.std::allocator" = type { i8 }
%"class.std::initializer_list" = type { %"class.std::vector"*, i64 }
%"class.std::allocator.2" = type { i8 }
%class.anon.5 = type { i32*, i32*, i32*, %"class.std::function"* }
%"class.__gnu_cxx::__normal_iterator" = type { i32* }
%"struct.std::_Maybe_unary_or_binary_function" = type { i8 }
%"class.__gnu_cxx::new_allocator" = type { i8 }
%"struct.std::random_access_iterator_tag" = type { i8 }
%"class.__gnu_cxx::new_allocator.3" = type { i8 }
%"struct.std::forward_iterator_tag" = type { i8 }
%"struct.std::integral_constant" = type { i8 }
%"class.std::type_info" = type { i32 (...)**, i8* }
%"struct.std::__invoke_other" = type { i8 }
%"class.__gnu_cxx::__normal_iterator.6" = type { %"class.std::vector"* }
%"class.__gnu_cxx::__normal_iterator.7" = type { i32* }
%"class.std::initializer_list.8" = type { i32*, i64 }
%"class.__gnu_cxx::__normal_iterator.9" = type { %"class.std::vector"* }
%"struct.std::__false_type" = type { i8 }
%"struct.std::integral_constant.10" = type { i8 }
%"class.std::move_iterator" = type { i32* }
%"class.std::move_iterator.11" = type { %"class.std::vector"* }
%"struct.__gnu_cxx::__ops::_Iter_less_iter" = type { i8 }
%"struct.__gnu_cxx::__ops::_Iter_less_val" = type { i8 }
%"struct.__gnu_cxx::__ops::_Val_less_iter" = type { i8 }

$_Z5rangeii = comdat any

$_Z18partition_filteredRKSt6vectorIiSaIiEESt8functionIFvRKS_IS1_SaIS1_EEEEii = comdat any

$_ZNSt8functionIFvRKSt6vectorIS0_IiSaIiEESaIS2_EEEED2Ev = comdat any

$_ZNSt6vectorIiSaIiEED2Ev = comdat any

$_ZNSaIiEC2Ev = comdat any

$_ZNSt6vectorIiSaIiEEC2EmRKS0_ = comdat any

$_ZNSaIiED2Ev = comdat any

$_ZNSt6vectorIiSaIiEEixEm = comdat any

$_ZN9__gnu_cxx13new_allocatorIiEC2Ev = comdat any

$_ZNSt6vectorIiSaIiEE17_S_check_init_lenEmRKS0_ = comdat any

$_ZNSt12_Vector_baseIiSaIiEEC2EmRKS0_ = comdat any

$_ZNSt6vectorIiSaIiEE21_M_default_initializeEm = comdat any

$_ZNSt12_Vector_baseIiSaIiEED2Ev = comdat any

$_ZNSt6vectorIiSaIiEE11_S_max_sizeERKS0_ = comdat any

$_ZNSaIiEC2ERKS_ = comdat any

$_ZNSt16allocator_traitsISaIiEE8max_sizeERKS0_ = comdat any

$_ZSt3minImERKT_S2_S2_ = comdat any

$__clang_call_terminate = comdat any

$_ZNK9__gnu_cxx13new_allocatorIiE8max_sizeEv = comdat any

$_ZNK9__gnu_cxx13new_allocatorIiE11_M_max_sizeEv = comdat any

$_ZN9__gnu_cxx13new_allocatorIiEC2ERKS1_ = comdat any

$_ZNSt12_Vector_baseIiSaIiEE12_Vector_implC2ERKS0_ = comdat any

$_ZNSt12_Vector_baseIiSaIiEE17_M_create_storageEm = comdat any

$_ZNSt12_Vector_baseIiSaIiEE12_Vector_implD2Ev = comdat any

$_ZNSt12_Vector_baseIiSaIiEE11_M_allocateEm = comdat any

$_ZNSt16allocator_traitsISaIiEE8allocateERS0_m = comdat any

$_ZN9__gnu_cxx13new_allocatorIiE8allocateEmPKv = comdat any

$_ZN9__gnu_cxx13new_allocatorIiED2Ev = comdat any

$_ZSt27__uninitialized_default_n_aIPimiET_S1_T0_RSaIT1_E = comdat any

$_ZNSt12_Vector_baseIiSaIiEE19_M_get_Tp_allocatorEv = comdat any

$_ZSt25__uninitialized_default_nIPimET_S1_T0_ = comdat any

$_ZNSt27__uninitialized_default_n_1ILb1EE18__uninit_default_nIPimEET_S3_T0_ = comdat any

$_ZSt11__addressofIiEPT_RS0_ = comdat any

$_ZSt10_ConstructIiJEEvPT_DpOT0_ = comdat any

$_ZSt6fill_nIPimiET_S1_T0_RKT1_ = comdat any

$_ZSt10__fill_n_aIPimiET_S1_T0_RKT1_St26random_access_iterator_tag = comdat any

$_ZSt17__size_to_integerm = comdat any

$_ZSt19__iterator_categoryIPiENSt15iterator_traitsIT_E17iterator_categoryERKS2_ = comdat any

$_ZSt8__fill_aIPiiEvT_S1_RKT0_ = comdat any

$_ZSt9__fill_a1IPiiEN9__gnu_cxx11__enable_ifIXsr11__is_scalarIT0_EE7__valueEvE6__typeET_S6_RKS3_ = comdat any

$_ZNSt12_Vector_baseIiSaIiEE13_M_deallocateEPim = comdat any

$_ZNSt16allocator_traitsISaIiEE10deallocateERS0_Pim = comdat any

$_ZN9__gnu_cxx13new_allocatorIiE10deallocateEPim = comdat any

$_ZNKSt6vectorIiSaIiEE4sizeEv = comdat any

$_ZNKSt8functionIFvRKSt6vectorIS0_IiSaIiEESaIS2_EEEEclES6_ = comdat any

$_ZNSt6vectorIiSaIiEEC2ERKS1_ = comdat any

$_ZNSaISt6vectorIiSaIiEEEC2Ev = comdat any

$_ZNSt6vectorIS_IiSaIiEESaIS1_EEC2ESt16initializer_listIS1_ERKS2_ = comdat any

$_ZNSt6vectorIS_IiSaIiEESaIS1_EED2Ev = comdat any

$_ZNSaISt6vectorIiSaIiEEED2Ev = comdat any

$_ZNKSt6vectorIiSaIiEEixEm = comdat any

$_ZNKSt6vectorIiSaIiEE5beginEv = comdat any

$_ZNK9__gnu_cxx17__normal_iteratorIPKiSt6vectorIiSaIiEEEplEl = comdat any

$_ZNKSt6vectorIiSaIiEE3endEv = comdat any

$_ZNSt6vectorIiSaIiEEC2IN9__gnu_cxx17__normal_iteratorIPKiS1_EEvEET_S8_RKS0_ = comdat any

$_ZNSt8functionIFvRKSt6vectorIS0_IiSaIiEESaIS2_EEEEC2IRZ18partition_filteredRKS2_S8_iiEUlS6_E_vEEOT_ = comdat any

$_ZNKSt14_Function_base8_M_emptyEv = comdat any

$_ZSt7forwardIRKSt6vectorIS0_IiSaIiEESaIS2_EEEOT_RNSt16remove_referenceIS7_E4typeE = comdat any

$_ZN9__gnu_cxx14__alloc_traitsISaIiEiE17_S_select_on_copyERKS1_ = comdat any

$_ZNKSt12_Vector_baseIiSaIiEE19_M_get_Tp_allocatorEv = comdat any

$_ZSt22__uninitialized_copy_aIN9__gnu_cxx17__normal_iteratorIPKiSt6vectorIiSaIiEEEEPiiET0_T_SA_S9_RSaIT1_E = comdat any

$_ZNSt16allocator_traitsISaIiEE37select_on_container_copy_constructionERKS0_ = comdat any

$_ZSt18uninitialized_copyIN9__gnu_cxx17__normal_iteratorIPKiSt6vectorIiSaIiEEEEPiET0_T_SA_S9_ = comdat any

$_ZNSt20__uninitialized_copyILb1EE13__uninit_copyIN9__gnu_cxx17__normal_iteratorIPKiSt6vectorIiSaIiEEEEPiEET0_T_SC_SB_ = comdat any

$_ZSt4copyIN9__gnu_cxx17__normal_iteratorIPKiSt6vectorIiSaIiEEEEPiET0_T_SA_S9_ = comdat any

$_ZSt13__copy_move_aILb0EN9__gnu_cxx17__normal_iteratorIPKiSt6vectorIiSaIiEEEEPiET1_T0_SA_S9_ = comdat any

$_ZSt12__miter_baseIN9__gnu_cxx17__normal_iteratorIPKiSt6vectorIiSaIiEEEEET_S8_ = comdat any

$_ZSt12__niter_wrapIPiET_RKS1_S1_ = comdat any

$_ZSt14__copy_move_a1ILb0EPKiPiET1_T0_S4_S3_ = comdat any

$_ZSt12__niter_baseIPKiSt6vectorIiSaIiEEET_N9__gnu_cxx17__normal_iteratorIS5_T0_EE = comdat any

$_ZSt12__niter_baseIPiET_S1_ = comdat any

$_ZSt14__copy_move_a2ILb0EPKiPiET1_T0_S4_S3_ = comdat any

$_ZNSt11__copy_moveILb0ELb1ESt26random_access_iterator_tagE8__copy_mIiEEPT_PKS3_S6_S4_ = comdat any

$_ZNK9__gnu_cxx17__normal_iteratorIPKiSt6vectorIiSaIiEEE4baseEv = comdat any

$_ZN9__gnu_cxx13new_allocatorISt6vectorIiSaIiEEEC2Ev = comdat any

$_ZNSt12_Vector_baseISt6vectorIiSaIiEESaIS2_EEC2ERKS3_ = comdat any

$_ZNSt6vectorIS_IiSaIiEESaIS1_EE19_M_range_initializeIPKS1_EEvT_S7_St20forward_iterator_tag = comdat any

$_ZNKSt16initializer_listISt6vectorIiSaIiEEE5beginEv = comdat any

$_ZNKSt16initializer_listISt6vectorIiSaIiEEE3endEv = comdat any

$_ZNSt12_Vector_baseISt6vectorIiSaIiEESaIS2_EED2Ev = comdat any

$_ZNSt12_Vector_baseISt6vectorIiSaIiEESaIS2_EE12_Vector_implC2ERKS3_ = comdat any

$_ZNSt12_Vector_baseISt6vectorIiSaIiEESaIS2_EE17_Vector_impl_dataC2Ev = comdat any

$_ZN9__gnu_cxx13new_allocatorISt6vectorIiSaIiEEEC2ERKS4_ = comdat any

$_ZSt8distanceIPKSt6vectorIiSaIiEEENSt15iterator_traitsIT_E15difference_typeES6_S6_ = comdat any

$_ZNSt12_Vector_baseISt6vectorIiSaIiEESaIS2_EE11_M_allocateEm = comdat any

$_ZNSt6vectorIS_IiSaIiEESaIS1_EE17_S_check_init_lenEmRKS2_ = comdat any

$_ZNSt12_Vector_baseISt6vectorIiSaIiEESaIS2_EE19_M_get_Tp_allocatorEv = comdat any

$_ZSt22__uninitialized_copy_aIPKSt6vectorIiSaIiEEPS2_S2_ET0_T_S7_S6_RSaIT1_E = comdat any

$_ZSt10__distanceIPKSt6vectorIiSaIiEEENSt15iterator_traitsIT_E15difference_typeES6_S6_St26random_access_iterator_tag = comdat any

$_ZSt19__iterator_categoryIPKSt6vectorIiSaIiEEENSt15iterator_traitsIT_E17iterator_categoryERKS6_ = comdat any

$_ZNSt16allocator_traitsISaISt6vectorIiSaIiEEEE8allocateERS3_m = comdat any

$_ZN9__gnu_cxx13new_allocatorISt6vectorIiSaIiEEE8allocateEmPKv = comdat any

$_ZNK9__gnu_cxx13new_allocatorISt6vectorIiSaIiEEE11_M_max_sizeEv = comdat any

$_ZNSt6vectorIS_IiSaIiEESaIS1_EE11_S_max_sizeERKS2_ = comdat any

$_ZNSaISt6vectorIiSaIiEEEC2ERKS2_ = comdat any

$_ZNSt16allocator_traitsISaISt6vectorIiSaIiEEEE8max_sizeERKS3_ = comdat any

$_ZNK9__gnu_cxx13new_allocatorISt6vectorIiSaIiEEE8max_sizeEv = comdat any

$_ZSt18uninitialized_copyIPKSt6vectorIiSaIiEEPS2_ET0_T_S7_S6_ = comdat any

$_ZNSt20__uninitialized_copyILb0EE13__uninit_copyIPKSt6vectorIiSaIiEEPS4_EET0_T_S9_S8_ = comdat any

$_ZSt10_ConstructISt6vectorIiSaIiEEJRKS2_EEvPT_DpOT0_ = comdat any

$_ZSt11__addressofISt6vectorIiSaIiEEEPT_RS3_ = comdat any

$_ZSt8_DestroyIPSt6vectorIiSaIiEEEvT_S4_ = comdat any

$_ZSt7forwardIRKSt6vectorIiSaIiEEEOT_RNSt16remove_referenceIS5_E4typeE = comdat any

$_ZNSt12_Destroy_auxILb0EE9__destroyIPSt6vectorIiSaIiEEEEvT_S6_ = comdat any

$_ZSt8_DestroyISt6vectorIiSaIiEEEvPT_ = comdat any

$_ZNKSt16initializer_listISt6vectorIiSaIiEEE4sizeEv = comdat any

$_ZNSt12_Vector_baseISt6vectorIiSaIiEESaIS2_EE13_M_deallocateEPS2_m = comdat any

$_ZNSt12_Vector_baseISt6vectorIiSaIiEESaIS2_EE12_Vector_implD2Ev = comdat any

$_ZNSt16allocator_traitsISaISt6vectorIiSaIiEEEE10deallocateERS3_PS2_m = comdat any

$_ZN9__gnu_cxx13new_allocatorISt6vectorIiSaIiEEE10deallocateEPS3_m = comdat any

$_ZN9__gnu_cxx13new_allocatorISt6vectorIiSaIiEEED2Ev = comdat any

$_ZSt8_DestroyIPSt6vectorIiSaIiEES2_EvT_S4_RSaIT0_E = comdat any

$_ZN9__gnu_cxx17__normal_iteratorIPKiSt6vectorIiSaIiEEEC2ERKS2_ = comdat any

$_ZNSt12_Vector_baseIiSaIiEEC2ERKS0_ = comdat any

$_ZNSt6vectorIiSaIiEE19_M_range_initializeIN9__gnu_cxx17__normal_iteratorIPKiS1_EEEEvT_S8_St20forward_iterator_tag = comdat any

$_ZSt19__iterator_categoryIN9__gnu_cxx17__normal_iteratorIPKiSt6vectorIiSaIiEEEEENSt15iterator_traitsIT_E17iterator_categoryERKS9_ = comdat any

$_ZSt8distanceIN9__gnu_cxx17__normal_iteratorIPKiSt6vectorIiSaIiEEEEENSt15iterator_traitsIT_E15difference_typeES9_S9_ = comdat any

$_ZSt10__distanceIN9__gnu_cxx17__normal_iteratorIPKiSt6vectorIiSaIiEEEEENSt15iterator_traitsIT_E15difference_typeES9_S9_St26random_access_iterator_tag = comdat any

$_ZN9__gnu_cxxmiIPKiSt6vectorIiSaIiEEEENS_17__normal_iteratorIT_T0_E15difference_typeERKS9_SC_ = comdat any

$_ZNSt14_Function_baseC2Ev = comdat any

$_ZNSt14_Function_base13_Base_managerIZ18partition_filteredRKSt6vectorIiSaIiEESt8functionIFvRKS1_IS3_SaIS3_EEEEiiEUlSA_E_E21_M_not_empty_functionISD_EEbRKT_ = comdat any

$_ZNSt14_Function_base13_Base_managerIZ18partition_filteredRKSt6vectorIiSaIiEESt8functionIFvRKS1_IS3_SaIS3_EEEEiiEUlSA_E_E15_M_init_functorIRSD_EEvRSt9_Any_dataOT_ = comdat any

$_ZSt7forwardIRZ18partition_filteredRKSt6vectorIiSaIiEESt8functionIFvRKS0_IS2_SaIS2_EEEEiiEUlS9_E_EOT_RNSt16remove_referenceISE_E4typeE = comdat any

$_ZNSt17_Function_handlerIFvRKSt6vectorIS0_IiSaIiEESaIS2_EEEZ18partition_filteredRKS2_St8functionIS7_EiiEUlS6_E_E9_M_invokeERKSt9_Any_dataS6_ = comdat any

$_ZNSt17_Function_handlerIFvRKSt6vectorIS0_IiSaIiEESaIS2_EEEZ18partition_filteredRKS2_St8functionIS7_EiiEUlS6_E_E10_M_managerERSt9_Any_dataRKSE_St18_Manager_operation = comdat any

$_ZNSt14_Function_baseD2Ev = comdat any

$_ZNSt14_Function_base13_Base_managerIZ18partition_filteredRKSt6vectorIiSaIiEESt8functionIFvRKS1_IS3_SaIS3_EEEEiiEUlSA_E_E9_M_createIRSD_EEvRSt9_Any_dataOT_St17integral_constantIbLb0EE = comdat any

$_ZNSt9_Any_data9_M_accessIPZ18partition_filteredRKSt6vectorIiSaIiEESt8functionIFvRKS1_IS3_SaIS3_EEEEiiEUlSA_E_EERT_v = comdat any

$_ZNSt9_Any_data9_M_accessEv = comdat any

$_ZSt10__invoke_rIvRZ18partition_filteredRKSt6vectorIiSaIiEESt8functionIFvRKS0_IS2_SaIS2_EEEEiiEUlS9_E_JS9_EENSt9enable_ifIX16is_invocable_r_vIT_T0_DpT1_EESF_E4typeEOSG_DpOSH_ = comdat any

$_ZNSt14_Function_base13_Base_managerIZ18partition_filteredRKSt6vectorIiSaIiEESt8functionIFvRKS1_IS3_SaIS3_EEEEiiEUlSA_E_E14_M_get_pointerERKSt9_Any_data = comdat any

$_ZSt13__invoke_implIvRZ18partition_filteredRKSt6vectorIiSaIiEESt8functionIFvRKS0_IS2_SaIS2_EEEEiiEUlS9_E_JS9_EET_St14__invoke_otherOT0_DpOT1_ = comdat any

$_ZZ18partition_filteredRKSt6vectorIiSaIiEESt8functionIFvRKS_IS1_SaIS1_EEEEiiENKUlS8_E_clES8_ = comdat any

$_ZNSt6vectorIS_IiSaIiEESaIS1_EEC2Ev = comdat any

$_ZNSt6vectorIS_IiSaIiEESaIS1_EE7reserveEm = comdat any

$_ZNKSt6vectorIS_IiSaIiEESaIS1_EE4sizeEv = comdat any

$_ZNSt6vectorIiSaIiEEC2Ev = comdat any

$_ZNKSt6vectorIS_IiSaIiEESaIS1_EE5beginEv = comdat any

$_ZNKSt6vectorIS_IiSaIiEESaIS1_EE3endEv = comdat any

$_ZN9__gnu_cxxneIPKSt6vectorIiSaIiEES1_IS3_SaIS3_EEEEbRKNS_17__normal_iteratorIT_T0_EESD_ = comdat any

$_ZNK9__gnu_cxx17__normal_iteratorIPKSt6vectorIiSaIiEES1_IS3_SaIS3_EEEdeEv = comdat any

$_ZNSt6vectorIS_IiSaIiEESaIS1_EE6resizeEm = comdat any

$_ZNKSt6vectorIS_IiSaIiEESaIS1_EEixEm = comdat any

$_ZNSt6vectorIS_IiSaIiEESaIS1_EEixEm = comdat any

$_ZNSt6vectorIiSaIiEEaSERKS1_ = comdat any

$_ZNSt6vectorIiSaIiEE5clearEv = comdat any

$_ZNSt6vectorIiSaIiEE7reserveEm = comdat any

$_ZNSt6vectorIiSaIiEE9push_backERKi = comdat any

$_ZNSt6vectorIiSaIiEE6insertIN9__gnu_cxx17__normal_iteratorIPKiS1_EEvEENS4_IPiS1_EES7_T_SA_ = comdat any

$_ZNSt6vectorIiSaIiEE3endEv = comdat any

$_ZN9__gnu_cxx17__normal_iteratorIPKiSt6vectorIiSaIiEEEC2IPiEERKNS0_IT_NS_11__enable_ifIXsr3std10__are_sameIS9_S8_EE7__valueES5_E6__typeEEE = comdat any

$_ZNSt6vectorIS_IiSaIiEESaIS1_EE9push_backERKS1_ = comdat any

$_Z8conformsRKSt6vectorIS_IiSaIiEESaIS1_EEii = comdat any

$_ZN9__gnu_cxx17__normal_iteratorIPKSt6vectorIiSaIiEES1_IS3_SaIS3_EEEppEv = comdat any

$_ZNSt6vectorIS_IiSaIiEESaIS1_EE5clearEv = comdat any

$_ZNSt6vectorIS_IiSaIiEESaIS1_EE9push_backEOS1_ = comdat any

$_ZNSt6vectorIiSaIiEEC2ESt16initializer_listIiERKS0_ = comdat any

$_ZNSt6vectorIS_IiSaIiEESaIS1_EE6insertIN9__gnu_cxx17__normal_iteratorIPKS1_S3_EEvEENS6_IPS1_S3_EES9_T_SC_ = comdat any

$_ZNSt6vectorIS_IiSaIiEESaIS1_EE3endEv = comdat any

$_ZN9__gnu_cxx17__normal_iteratorIPKSt6vectorIiSaIiEES1_IS3_SaIS3_EEEC2IPS3_EERKNS0_IT_NS_11__enable_ifIXsr3std10__are_sameISB_SA_EE7__valueES7_E6__typeEEE = comdat any

$_ZNSt12_Vector_baseISt6vectorIiSaIiEESaIS2_EEC2Ev = comdat any

$_ZNSt12_Vector_baseISt6vectorIiSaIiEESaIS2_EE12_Vector_implC2Ev = comdat any

$_ZNKSt6vectorIS_IiSaIiEESaIS1_EE8max_sizeEv = comdat any

$_ZNKSt6vectorIS_IiSaIiEESaIS1_EE8capacityEv = comdat any

$_ZNSt6vectorIS_IiSaIiEESaIS1_EE11_S_relocateEPS1_S4_S4_RS2_ = comdat any

$_ZNKSt12_Vector_baseISt6vectorIiSaIiEESaIS2_EE19_M_get_Tp_allocatorEv = comdat any

$_ZNSt6vectorIS_IiSaIiEESaIS1_EE14_S_do_relocateEPS1_S4_S4_RS2_St17integral_constantIbLb1EE = comdat any

$_ZSt12__relocate_aIPSt6vectorIiSaIiEES3_SaIS2_EET0_T_S6_S5_RT1_ = comdat any

$_ZSt14__relocate_a_1IPSt6vectorIiSaIiEES3_SaIS2_EET0_T_S6_S5_RT1_ = comdat any

$_ZSt12__niter_baseIPSt6vectorIiSaIiEEET_S4_ = comdat any

$_ZSt19__relocate_object_aISt6vectorIiSaIiEES2_SaIS2_EEvPT_PT0_RT1_ = comdat any

$_ZNSt16allocator_traitsISaISt6vectorIiSaIiEEEE9constructIS2_JS2_EEEvRS3_PT_DpOT0_ = comdat any

$_ZSt4moveIRSt6vectorIiSaIiEEEONSt16remove_referenceIT_E4typeEOS5_ = comdat any

$_ZNSt16allocator_traitsISaISt6vectorIiSaIiEEEE7destroyIS2_EEvRS3_PT_ = comdat any

$_ZN9__gnu_cxx13new_allocatorISt6vectorIiSaIiEEE9constructIS3_JS3_EEEvPT_DpOT0_ = comdat any

$_ZSt7forwardISt6vectorIiSaIiEEEOT_RNSt16remove_referenceIS3_E4typeE = comdat any

$_ZNSt6vectorIiSaIiEEC2EOS1_ = comdat any

$_ZNSt12_Vector_baseIiSaIiEEC2EOS1_ = comdat any

$_ZNSt12_Vector_baseIiSaIiEE12_Vector_implC2EOS2_ = comdat any

$_ZSt4moveIRNSt12_Vector_baseIiSaIiEE12_Vector_implEEONSt16remove_referenceIT_E4typeEOS6_ = comdat any

$_ZNSt12_Vector_baseIiSaIiEE17_Vector_impl_dataC2EOS2_ = comdat any

$_ZN9__gnu_cxx13new_allocatorISt6vectorIiSaIiEEE7destroyIS3_EEvPT_ = comdat any

$_ZNSt12_Vector_baseIiSaIiEEC2Ev = comdat any

$_ZNSt12_Vector_baseIiSaIiEE12_Vector_implC2Ev = comdat any

$_ZN9__gnu_cxx17__normal_iteratorIPKSt6vectorIiSaIiEES1_IS3_SaIS3_EEEC2ERKS5_ = comdat any

$_ZNK9__gnu_cxx17__normal_iteratorIPKSt6vectorIiSaIiEES1_IS3_SaIS3_EEE4baseEv = comdat any

$_ZNSt6vectorIS_IiSaIiEESaIS1_EE17_M_default_appendEm = comdat any

$_ZNSt6vectorIS_IiSaIiEESaIS1_EE15_M_erase_at_endEPS1_ = comdat any

$_ZSt27__uninitialized_default_n_aIPSt6vectorIiSaIiEEmS2_ET_S4_T0_RSaIT1_E = comdat any

$_ZNKSt6vectorIS_IiSaIiEESaIS1_EE12_M_check_lenEmPKc = comdat any

$_ZSt25__uninitialized_default_nIPSt6vectorIiSaIiEEmET_S4_T0_ = comdat any

$_ZNSt27__uninitialized_default_n_1ILb0EE18__uninit_default_nIPSt6vectorIiSaIiEEmEET_S6_T0_ = comdat any

$_ZSt10_ConstructISt6vectorIiSaIiEEJEEvPT_DpOT0_ = comdat any

$_ZSt3maxImERKT_S2_S2_ = comdat any

$_ZNKSt6vectorIiSaIiEE8capacityEv = comdat any

$_ZNSt6vectorIiSaIiEE20_M_allocate_and_copyIN9__gnu_cxx17__normal_iteratorIPKiS1_EEEEPimT_S9_ = comdat any

$_ZSt8_DestroyIPiiEvT_S1_RSaIT0_E = comdat any

$_ZSt8_DestroyIN9__gnu_cxx17__normal_iteratorIPiSt6vectorIiSaIiEEEEiEvT_S7_RSaIT0_E = comdat any

$_ZSt4copyIN9__gnu_cxx17__normal_iteratorIPKiSt6vectorIiSaIiEEEENS1_IPiS6_EEET0_T_SB_SA_ = comdat any

$_ZNSt6vectorIiSaIiEE5beginEv = comdat any

$_ZSt4copyIPiS0_ET0_T_S2_S1_ = comdat any

$_ZSt22__uninitialized_copy_aIPiS0_iET0_T_S2_S1_RSaIT1_E = comdat any

$_ZSt8_DestroyIPiEvT_S1_ = comdat any

$_ZNSt12_Destroy_auxILb1EE9__destroyIPiEEvT_S3_ = comdat any

$_ZSt8_DestroyIN9__gnu_cxx17__normal_iteratorIPiSt6vectorIiSaIiEEEEEvT_S7_ = comdat any

$_ZNSt12_Destroy_auxILb1EE9__destroyIN9__gnu_cxx17__normal_iteratorIPiSt6vectorIiSaIiEEEEEEvT_S9_ = comdat any

$_ZSt13__copy_move_aILb0EN9__gnu_cxx17__normal_iteratorIPKiSt6vectorIiSaIiEEEENS1_IPiS6_EEET1_T0_SB_SA_ = comdat any

$_ZSt12__niter_wrapIN9__gnu_cxx17__normal_iteratorIPiSt6vectorIiSaIiEEEES2_ET_S7_T0_ = comdat any

$_ZSt12__niter_baseIPiSt6vectorIiSaIiEEET_N9__gnu_cxx17__normal_iteratorIS4_T0_EE = comdat any

$_ZNK9__gnu_cxx17__normal_iteratorIPiSt6vectorIiSaIiEEEplEl = comdat any

$_ZN9__gnu_cxx17__normal_iteratorIPiSt6vectorIiSaIiEEEC2ERKS1_ = comdat any

$_ZNK9__gnu_cxx17__normal_iteratorIPiSt6vectorIiSaIiEEE4baseEv = comdat any

$_ZSt13__copy_move_aILb0EPiS0_ET1_T0_S2_S1_ = comdat any

$_ZSt12__miter_baseIPiET_S1_ = comdat any

$_ZSt14__copy_move_a1ILb0EPiS0_ET1_T0_S2_S1_ = comdat any

$_ZSt14__copy_move_a2ILb0EPiS0_ET1_T0_S2_S1_ = comdat any

$_ZSt18uninitialized_copyIPiS0_ET0_T_S2_S1_ = comdat any

$_ZNSt20__uninitialized_copyILb1EE13__uninit_copyIPiS2_EET0_T_S4_S3_ = comdat any

$_ZNSt6vectorIiSaIiEE15_M_erase_at_endEPi = comdat any

$_ZNKSt6vectorIiSaIiEE8max_sizeEv = comdat any

$_ZNSt6vectorIiSaIiEE11_S_relocateEPiS2_S2_RS0_ = comdat any

$_ZNSt6vectorIiSaIiEE14_S_do_relocateEPiS2_S2_RS0_St17integral_constantIbLb1EE = comdat any

$_ZSt12__relocate_aIPiS0_SaIiEET0_T_S3_S2_RT1_ = comdat any

$_ZSt14__relocate_a_1IiiENSt9enable_ifIXsr3std24__is_bitwise_relocatableIT_EE5valueEPS1_E4typeES2_S2_S2_RSaIT0_E = comdat any

$_ZNSt16allocator_traitsISaIiEE9constructIiJRKiEEEvRS0_PT_DpOT0_ = comdat any

$_ZNSt6vectorIiSaIiEE17_M_realloc_insertIJRKiEEEvN9__gnu_cxx17__normal_iteratorIPiS1_EEDpOT_ = comdat any

$_ZN9__gnu_cxx13new_allocatorIiE9constructIiJRKiEEEvPT_DpOT0_ = comdat any

$_ZSt7forwardIRKiEOT_RNSt16remove_referenceIS2_E4typeE = comdat any

$_ZNKSt6vectorIiSaIiEE12_M_check_lenEmPKc = comdat any

$_ZN9__gnu_cxxmiIPiSt6vectorIiSaIiEEEENS_17__normal_iteratorIT_T0_E15difference_typeERKS8_SB_ = comdat any

$_ZNKSt6vectorIiSaIiEE6cbeginEv = comdat any

$_ZNSt6vectorIiSaIiEE18_M_insert_dispatchIN9__gnu_cxx17__normal_iteratorIPKiS1_EEEEvNS4_IPiS1_EET_SA_St12__false_type = comdat any

$_ZNSt6vectorIiSaIiEE15_M_range_insertIN9__gnu_cxx17__normal_iteratorIPKiS1_EEEEvNS4_IPiS1_EET_SA_St20forward_iterator_tag = comdat any

$_ZN9__gnu_cxxneIPKiSt6vectorIiSaIiEEEEbRKNS_17__normal_iteratorIT_T0_EESB_ = comdat any

$_ZSt22__uninitialized_move_aIPiS0_SaIiEET0_T_S3_S2_RT1_ = comdat any

$_ZSt13move_backwardIPiS0_ET0_T_S2_S1_ = comdat any

$_ZSt7advanceIN9__gnu_cxx17__normal_iteratorIPKiSt6vectorIiSaIiEEEEmEvRT_T0_ = comdat any

$_ZSt34__uninitialized_move_if_noexcept_aIPiS0_SaIiEET0_T_S3_S2_RT1_ = comdat any

$_ZSt22__uninitialized_copy_aISt13move_iteratorIPiES1_iET0_T_S4_S3_RSaIT1_E = comdat any

$_ZSt18make_move_iteratorIPiESt13move_iteratorIT_ES2_ = comdat any

$_ZSt18uninitialized_copyISt13move_iteratorIPiES1_ET0_T_S4_S3_ = comdat any

$_ZNSt20__uninitialized_copyILb1EE13__uninit_copyISt13move_iteratorIPiES3_EET0_T_S6_S5_ = comdat any

$_ZSt4copyISt13move_iteratorIPiES1_ET0_T_S4_S3_ = comdat any

$_ZSt13__copy_move_aILb1EPiS0_ET1_T0_S2_S1_ = comdat any

$_ZSt12__miter_baseIPiEDTcl12__miter_basecldtfp_4baseEEESt13move_iteratorIT_E = comdat any

$_ZSt14__copy_move_a1ILb1EPiS0_ET1_T0_S2_S1_ = comdat any

$_ZSt14__copy_move_a2ILb1EPiS0_ET1_T0_S2_S1_ = comdat any

$_ZNSt11__copy_moveILb1ELb1ESt26random_access_iterator_tagE8__copy_mIiEEPT_PKS3_S6_S4_ = comdat any

$_ZNKSt13move_iteratorIPiE4baseEv = comdat any

$_ZSt4moveIRPiEONSt16remove_referenceIT_E4typeEOS3_ = comdat any

$_ZNSt13move_iteratorIPiEC2ES0_ = comdat any

$_ZSt22__copy_move_backward_aILb1EPiS0_ET1_T0_S2_S1_ = comdat any

$_ZSt23__copy_move_backward_a1ILb1EPiS0_ET1_T0_S2_S1_ = comdat any

$_ZSt23__copy_move_backward_a2ILb1EPiS0_ET1_T0_S2_S1_ = comdat any

$_ZNSt20__copy_move_backwardILb1ELb1ESt26random_access_iterator_tagE13__copy_move_bIiEEPT_PKS3_S6_S4_ = comdat any

$_ZSt9__advanceIN9__gnu_cxx17__normal_iteratorIPKiSt6vectorIiSaIiEEEElEvRT_T0_St26random_access_iterator_tag = comdat any

$_ZN9__gnu_cxx17__normal_iteratorIPKiSt6vectorIiSaIiEEEppEv = comdat any

$_ZN9__gnu_cxx17__normal_iteratorIPKiSt6vectorIiSaIiEEEmmEv = comdat any

$_ZN9__gnu_cxx17__normal_iteratorIPKiSt6vectorIiSaIiEEEpLEl = comdat any

$_ZSt32__make_move_if_noexcept_iteratorIiSt13move_iteratorIPiEET0_PT_ = comdat any

$_ZNSt16allocator_traitsISaISt6vectorIiSaIiEEEE9constructIS2_JRKS2_EEEvRS3_PT_DpOT0_ = comdat any

$_ZNSt6vectorIS_IiSaIiEESaIS1_EE17_M_realloc_insertIJRKS1_EEEvN9__gnu_cxx17__normal_iteratorIPS1_S3_EEDpOT_ = comdat any

$_ZN9__gnu_cxx13new_allocatorISt6vectorIiSaIiEEE9constructIS3_JRKS3_EEEvPT_DpOT0_ = comdat any

$_ZN9__gnu_cxxmiIPSt6vectorIiSaIiEES1_IS3_SaIS3_EEEENS_17__normal_iteratorIT_T0_E15difference_typeERKSA_SD_ = comdat any

$_ZNSt6vectorIS_IiSaIiEESaIS1_EE5beginEv = comdat any

$_ZNK9__gnu_cxx17__normal_iteratorIPSt6vectorIiSaIiEES1_IS3_SaIS3_EEE4baseEv = comdat any

$_ZN9__gnu_cxx17__normal_iteratorIPSt6vectorIiSaIiEES1_IS3_SaIS3_EEEC2ERKS4_ = comdat any

$_ZNSt6vectorIS_IiSaIiEESaIS1_EE12emplace_backIJS1_EEERS1_DpOT_ = comdat any

$_ZNSt6vectorIS_IiSaIiEESaIS1_EE17_M_realloc_insertIJS1_EEEvN9__gnu_cxx17__normal_iteratorIPS1_S3_EEDpOT_ = comdat any

$_ZNSt6vectorIS_IiSaIiEESaIS1_EE4backEv = comdat any

$_ZNK9__gnu_cxx17__normal_iteratorIPSt6vectorIiSaIiEES1_IS3_SaIS3_EEEmiEl = comdat any

$_ZNK9__gnu_cxx17__normal_iteratorIPSt6vectorIiSaIiEES1_IS3_SaIS3_EEEdeEv = comdat any

$_ZNSt6vectorIiSaIiEE19_M_range_initializeIPKiEEvT_S5_St20forward_iterator_tag = comdat any

$_ZNKSt16initializer_listIiE5beginEv = comdat any

$_ZNKSt16initializer_listIiE3endEv = comdat any

$_ZSt8distanceIPKiENSt15iterator_traitsIT_E15difference_typeES3_S3_ = comdat any

$_ZSt22__uninitialized_copy_aIPKiPiiET0_T_S4_S3_RSaIT1_E = comdat any

$_ZSt10__distanceIPKiENSt15iterator_traitsIT_E15difference_typeES3_S3_St26random_access_iterator_tag = comdat any

$_ZSt19__iterator_categoryIPKiENSt15iterator_traitsIT_E17iterator_categoryERKS3_ = comdat any

$_ZSt18uninitialized_copyIPKiPiET0_T_S4_S3_ = comdat any

$_ZNSt20__uninitialized_copyILb1EE13__uninit_copyIPKiPiEET0_T_S6_S5_ = comdat any

$_ZSt4copyIPKiPiET0_T_S4_S3_ = comdat any

$_ZSt13__copy_move_aILb0EPKiPiET1_T0_S4_S3_ = comdat any

$_ZSt12__miter_baseIPKiET_S2_ = comdat any

$_ZSt12__niter_baseIPKiET_S2_ = comdat any

$_ZNKSt16initializer_listIiE4sizeEv = comdat any

$_ZN9__gnu_cxxmiIPKSt6vectorIiSaIiEES1_IS3_SaIS3_EEEENS_17__normal_iteratorIT_T0_E15difference_typeERKSB_SE_ = comdat any

$_ZNKSt6vectorIS_IiSaIiEESaIS1_EE6cbeginEv = comdat any

$_ZNSt6vectorIS_IiSaIiEESaIS1_EE18_M_insert_dispatchIN9__gnu_cxx17__normal_iteratorIPKS1_S3_EEEEvNS6_IPS1_S3_EET_SC_St12__false_type = comdat any

$_ZNK9__gnu_cxx17__normal_iteratorIPSt6vectorIiSaIiEES1_IS3_SaIS3_EEEplEl = comdat any

$_ZNSt6vectorIS_IiSaIiEESaIS1_EE15_M_range_insertIN9__gnu_cxx17__normal_iteratorIPKS1_S3_EEEEvNS6_IPS1_S3_EET_SC_St20forward_iterator_tag = comdat any

$_ZSt19__iterator_categoryIN9__gnu_cxx17__normal_iteratorIPKSt6vectorIiSaIiEES2_IS4_SaIS4_EEEEENSt15iterator_traitsIT_E17iterator_categoryERKSB_ = comdat any

$_ZSt8distanceIN9__gnu_cxx17__normal_iteratorIPKSt6vectorIiSaIiEES2_IS4_SaIS4_EEEEENSt15iterator_traitsIT_E15difference_typeESB_SB_ = comdat any

$_ZSt22__uninitialized_move_aIPSt6vectorIiSaIiEES3_SaIS2_EET0_T_S6_S5_RT1_ = comdat any

$_ZSt13move_backwardIPSt6vectorIiSaIiEES3_ET0_T_S5_S4_ = comdat any

$_ZSt4copyIN9__gnu_cxx17__normal_iteratorIPKSt6vectorIiSaIiEES2_IS4_SaIS4_EEEENS1_IPS4_S8_EEET0_T_SD_SC_ = comdat any

$_ZSt7advanceIN9__gnu_cxx17__normal_iteratorIPKSt6vectorIiSaIiEES2_IS4_SaIS4_EEEEmEvRT_T0_ = comdat any

$_ZSt22__uninitialized_copy_aIN9__gnu_cxx17__normal_iteratorIPKSt6vectorIiSaIiEES2_IS4_SaIS4_EEEEPS4_S4_ET0_T_SC_SB_RSaIT1_E = comdat any

$_ZSt34__uninitialized_move_if_noexcept_aIPSt6vectorIiSaIiEES3_SaIS2_EET0_T_S6_S5_RT1_ = comdat any

$_ZSt10__distanceIN9__gnu_cxx17__normal_iteratorIPKSt6vectorIiSaIiEES2_IS4_SaIS4_EEEEENSt15iterator_traitsIT_E15difference_typeESB_SB_St26random_access_iterator_tag = comdat any

$_ZSt22__uninitialized_copy_aISt13move_iteratorIPSt6vectorIiSaIiEEES4_S3_ET0_T_S7_S6_RSaIT1_E = comdat any

$_ZSt18make_move_iteratorIPSt6vectorIiSaIiEEESt13move_iteratorIT_ES5_ = comdat any

$_ZSt18uninitialized_copyISt13move_iteratorIPSt6vectorIiSaIiEEES4_ET0_T_S7_S6_ = comdat any

$_ZNSt20__uninitialized_copyILb0EE13__uninit_copyISt13move_iteratorIPSt6vectorIiSaIiEEES6_EET0_T_S9_S8_ = comdat any

$_ZStneIPSt6vectorIiSaIiEEEbRKSt13move_iteratorIT_ES8_ = comdat any

$_ZSt10_ConstructISt6vectorIiSaIiEEJS2_EEvPT_DpOT0_ = comdat any

$_ZNKSt13move_iteratorIPSt6vectorIiSaIiEEEdeEv = comdat any

$_ZNSt13move_iteratorIPSt6vectorIiSaIiEEEppEv = comdat any

$_ZSteqIPSt6vectorIiSaIiEEEbRKSt13move_iteratorIT_ES8_ = comdat any

$_ZNKSt13move_iteratorIPSt6vectorIiSaIiEEE4baseEv = comdat any

$_ZSt4moveIRPSt6vectorIiSaIiEEEONSt16remove_referenceIT_E4typeEOS6_ = comdat any

$_ZNSt13move_iteratorIPSt6vectorIiSaIiEEEC2ES3_ = comdat any

$_ZSt22__copy_move_backward_aILb1EPSt6vectorIiSaIiEES3_ET1_T0_S5_S4_ = comdat any

$_ZSt12__miter_baseIPSt6vectorIiSaIiEEET_S4_ = comdat any

$_ZSt12__niter_wrapIPSt6vectorIiSaIiEEET_RKS4_S4_ = comdat any

$_ZSt23__copy_move_backward_a1ILb1EPSt6vectorIiSaIiEES3_ET1_T0_S5_S4_ = comdat any

$_ZSt23__copy_move_backward_a2ILb1EPSt6vectorIiSaIiEES3_ET1_T0_S5_S4_ = comdat any

$_ZNSt20__copy_move_backwardILb1ELb0ESt26random_access_iterator_tagE13__copy_move_bIPSt6vectorIiSaIiEES6_EET0_T_S8_S7_ = comdat any

$_ZNSt6vectorIiSaIiEEaSEOS1_ = comdat any

$_ZNSt6vectorIiSaIiEE14_M_move_assignEOS1_St17integral_constantIbLb1EE = comdat any

$_ZNKSt12_Vector_baseIiSaIiEE13get_allocatorEv = comdat any

$_ZNSt6vectorIiSaIiEEC2ERKS0_ = comdat any

$_ZNSt12_Vector_baseIiSaIiEE17_Vector_impl_data12_M_swap_dataERS2_ = comdat any

$_ZSt15__alloc_on_moveISaIiEEvRT_S2_ = comdat any

$_ZNSt12_Vector_baseIiSaIiEE17_Vector_impl_dataC2Ev = comdat any

$_ZNSt12_Vector_baseIiSaIiEE17_Vector_impl_data12_M_copy_dataERKS2_ = comdat any

$_ZSt4moveIRSaIiEEONSt16remove_referenceIT_E4typeEOS3_ = comdat any

$_ZSt13__copy_move_aILb0EN9__gnu_cxx17__normal_iteratorIPKSt6vectorIiSaIiEES2_IS4_SaIS4_EEEENS1_IPS4_S8_EEET1_T0_SD_SC_ = comdat any

$_ZSt12__miter_baseIN9__gnu_cxx17__normal_iteratorIPKSt6vectorIiSaIiEES2_IS4_SaIS4_EEEEET_SA_ = comdat any

$_ZSt12__niter_wrapIN9__gnu_cxx17__normal_iteratorIPSt6vectorIiSaIiEES2_IS4_SaIS4_EEEES5_ET_S9_T0_ = comdat any

$_ZSt14__copy_move_a1ILb0EPKSt6vectorIiSaIiEEPS2_ET1_T0_S7_S6_ = comdat any

$_ZSt12__niter_baseIPKSt6vectorIiSaIiEES0_IS2_SaIS2_EEET_N9__gnu_cxx17__normal_iteratorIS7_T0_EE = comdat any

$_ZSt12__niter_baseIPSt6vectorIiSaIiEES0_IS2_SaIS2_EEET_N9__gnu_cxx17__normal_iteratorIS6_T0_EE = comdat any

$_ZSt14__copy_move_a2ILb0EPKSt6vectorIiSaIiEEPS2_ET1_T0_S7_S6_ = comdat any

$_ZNSt11__copy_moveILb0ELb0ESt26random_access_iterator_tagE8__copy_mIPKSt6vectorIiSaIiEEPS5_EET0_T_SA_S9_ = comdat any

$_ZSt9__advanceIN9__gnu_cxx17__normal_iteratorIPKSt6vectorIiSaIiEES2_IS4_SaIS4_EEEElEvRT_T0_St26random_access_iterator_tag = comdat any

$_ZN9__gnu_cxx17__normal_iteratorIPKSt6vectorIiSaIiEES1_IS3_SaIS3_EEEmmEv = comdat any

$_ZN9__gnu_cxx17__normal_iteratorIPKSt6vectorIiSaIiEES1_IS3_SaIS3_EEEpLEl = comdat any

$_ZSt18uninitialized_copyIN9__gnu_cxx17__normal_iteratorIPKSt6vectorIiSaIiEES2_IS4_SaIS4_EEEEPS4_ET0_T_SC_SB_ = comdat any

$_ZNSt20__uninitialized_copyILb0EE13__uninit_copyIN9__gnu_cxx17__normal_iteratorIPKSt6vectorIiSaIiEES4_IS6_SaIS6_EEEEPS6_EET0_T_SE_SD_ = comdat any

$_ZSt32__make_move_if_noexcept_iteratorISt6vectorIiSaIiEESt13move_iteratorIPS2_EET0_PT_ = comdat any

$_ZNKSt9_Any_data9_M_accessIPZ18partition_filteredRKSt6vectorIiSaIiEESt8functionIFvRKS1_IS3_SaIS3_EEEEiiEUlSA_E_EERKT_v = comdat any

$_ZNKSt9_Any_data9_M_accessEv = comdat any

$_ZNSt9_Any_data9_M_accessIPKSt9type_infoEERT_v = comdat any

$_ZNSt14_Function_base13_Base_managerIZ18partition_filteredRKSt6vectorIiSaIiEESt8functionIFvRKS1_IS3_SaIS3_EEEEiiEUlSA_E_E10_M_managerERSt9_Any_dataRKSF_St18_Manager_operation = comdat any

$_ZNSt14_Function_base13_Base_managerIZ18partition_filteredRKSt6vectorIiSaIiEESt8functionIFvRKS1_IS3_SaIS3_EEEEiiEUlSA_E_E15_M_init_functorIRKSD_EEvRSt9_Any_dataOT_ = comdat any

$_ZNSt14_Function_base13_Base_managerIZ18partition_filteredRKSt6vectorIiSaIiEESt8functionIFvRKS1_IS3_SaIS3_EEEEiiEUlSA_E_E10_M_destroyERSt9_Any_dataSt17integral_constantIbLb0EE = comdat any

$_ZNSt14_Function_base13_Base_managerIZ18partition_filteredRKSt6vectorIiSaIiEESt8functionIFvRKS1_IS3_SaIS3_EEEEiiEUlSA_E_E9_M_createIRKSD_EEvRSt9_Any_dataOT_St17integral_constantIbLb0EE = comdat any

$_ZSt7forwardIRKZ18partition_filteredRKSt6vectorIiSaIiEESt8functionIFvRKS0_IS2_SaIS2_EEEEiiEUlS9_E_EOT_RNSt16remove_referenceISF_E4typeE = comdat any

$_ZNSt6vectorIS_IiSaIiEESaIS1_EEC2ERKS3_ = comdat any

$_ZSt4sortIN9__gnu_cxx17__normal_iteratorIPSt6vectorIiSaIiEES2_IS4_SaIS4_EEEEEvT_S9_ = comdat any

$_ZN9__gnu_cxx14__alloc_traitsISaISt6vectorIiSaIiEEES3_E17_S_select_on_copyERKS4_ = comdat any

$_ZNSt12_Vector_baseISt6vectorIiSaIiEESaIS2_EEC2EmRKS3_ = comdat any

$_ZNSt16allocator_traitsISaISt6vectorIiSaIiEEEE37select_on_container_copy_constructionERKS3_ = comdat any

$_ZNSt12_Vector_baseISt6vectorIiSaIiEESaIS2_EE17_M_create_storageEm = comdat any

$_ZSt6__sortIN9__gnu_cxx17__normal_iteratorIPSt6vectorIiSaIiEES2_IS4_SaIS4_EEEENS0_5__ops15_Iter_less_iterEEvT_SB_T0_ = comdat any

$_ZN9__gnu_cxx5__ops16__iter_less_iterEv = comdat any

$_ZN9__gnu_cxxneIPSt6vectorIiSaIiEES1_IS3_SaIS3_EEEEbRKNS_17__normal_iteratorIT_T0_EESC_ = comdat any

$_ZSt16__introsort_loopIN9__gnu_cxx17__normal_iteratorIPSt6vectorIiSaIiEES2_IS4_SaIS4_EEEElNS0_5__ops15_Iter_less_iterEEvT_SB_T0_T1_ = comdat any

$_ZSt4__lgl = comdat any

$_ZSt22__final_insertion_sortIN9__gnu_cxx17__normal_iteratorIPSt6vectorIiSaIiEES2_IS4_SaIS4_EEEENS0_5__ops15_Iter_less_iterEEvT_SB_T0_ = comdat any

$_ZSt14__partial_sortIN9__gnu_cxx17__normal_iteratorIPSt6vectorIiSaIiEES2_IS4_SaIS4_EEEENS0_5__ops15_Iter_less_iterEEvT_SB_SB_T0_ = comdat any

$_ZSt27__unguarded_partition_pivotIN9__gnu_cxx17__normal_iteratorIPSt6vectorIiSaIiEES2_IS4_SaIS4_EEEENS0_5__ops15_Iter_less_iterEET_SB_SB_T0_ = comdat any

$_ZSt13__heap_selectIN9__gnu_cxx17__normal_iteratorIPSt6vectorIiSaIiEES2_IS4_SaIS4_EEEENS0_5__ops15_Iter_less_iterEEvT_SB_SB_T0_ = comdat any

$_ZSt11__sort_heapIN9__gnu_cxx17__normal_iteratorIPSt6vectorIiSaIiEES2_IS4_SaIS4_EEEENS0_5__ops15_Iter_less_iterEEvT_SB_RT0_ = comdat any

$_ZSt11__make_heapIN9__gnu_cxx17__normal_iteratorIPSt6vectorIiSaIiEES2_IS4_SaIS4_EEEENS0_5__ops15_Iter_less_iterEEvT_SB_RT0_ = comdat any

$_ZN9__gnu_cxxltIPSt6vectorIiSaIiEES1_IS3_SaIS3_EEEEbRKNS_17__normal_iteratorIT_T0_EESC_ = comdat any

$_ZNK9__gnu_cxx5__ops15_Iter_less_iterclINS_17__normal_iteratorIPSt6vectorIiSaIiEES4_IS6_SaIS6_EEEESA_EEbT_T0_ = comdat any

$_ZSt10__pop_heapIN9__gnu_cxx17__normal_iteratorIPSt6vectorIiSaIiEES2_IS4_SaIS4_EEEENS0_5__ops15_Iter_less_iterEEvT_SB_SB_RT0_ = comdat any

$_ZN9__gnu_cxx17__normal_iteratorIPSt6vectorIiSaIiEES1_IS3_SaIS3_EEEppEv = comdat any

$_ZSt13__adjust_heapIN9__gnu_cxx17__normal_iteratorIPSt6vectorIiSaIiEES2_IS4_SaIS4_EEEElS4_NS0_5__ops15_Iter_less_iterEEvT_T0_SC_T1_T2_ = comdat any

$_ZSt4moveIRN9__gnu_cxx5__ops15_Iter_less_iterEEONSt16remove_referenceIT_E4typeEOS5_ = comdat any

$_ZN9__gnu_cxx5__ops14_Iter_less_valC2ENS0_15_Iter_less_iterE = comdat any

$_ZSt11__push_heapIN9__gnu_cxx17__normal_iteratorIPSt6vectorIiSaIiEES2_IS4_SaIS4_EEEElS4_NS0_5__ops14_Iter_less_valEEvT_T0_SC_T1_RT2_ = comdat any

$_ZNK9__gnu_cxx5__ops14_Iter_less_valclINS_17__normal_iteratorIPSt6vectorIiSaIiEES4_IS6_SaIS6_EEEES6_EEbT_RT0_ = comdat any

$_ZStltIiSaIiEEbRKSt6vectorIT_T0_ES6_ = comdat any

$_ZSt23lexicographical_compareIN9__gnu_cxx17__normal_iteratorIPKiSt6vectorIiSaIiEEEES7_EbT_S8_T0_S9_ = comdat any

$_ZSt29__lexicographical_compare_auxIN9__gnu_cxx17__normal_iteratorIPKiSt6vectorIiSaIiEEEES7_EbT_S8_T0_S9_ = comdat any

$_ZSt30__lexicographical_compare_aux1IPKiS1_EbT_S2_T0_S3_ = comdat any

$_ZNSt25__lexicographical_compareILb0EE4__lcIPKiS3_EEbT_S4_T0_S5_ = comdat any

$_ZSt30__lexicographical_compare_implIPKiS1_N9__gnu_cxx5__ops15_Iter_less_iterEEbT_S5_T0_S6_T1_ = comdat any

$_ZNSt8__lc_raiISt26random_access_iterator_tagS0_E10__newlast1IPKiS4_EET_S5_S5_T0_S6_ = comdat any

$_ZNSt8__lc_raiISt26random_access_iterator_tagS0_E6__cnd2IPKiEEbT_S5_ = comdat any

$_ZNK9__gnu_cxx5__ops15_Iter_less_iterclIPKiS4_EEbT_T0_ = comdat any

$_ZN9__gnu_cxx17__normal_iteratorIPSt6vectorIiSaIiEES1_IS3_SaIS3_EEEmmEv = comdat any

$_ZSt22__move_median_to_firstIN9__gnu_cxx17__normal_iteratorIPSt6vectorIiSaIiEES2_IS4_SaIS4_EEEENS0_5__ops15_Iter_less_iterEEvT_SB_SB_SB_T0_ = comdat any

$_ZSt21__unguarded_partitionIN9__gnu_cxx17__normal_iteratorIPSt6vectorIiSaIiEES2_IS4_SaIS4_EEEENS0_5__ops15_Iter_less_iterEET_SB_SB_SB_T0_ = comdat any

$_ZSt9iter_swapIN9__gnu_cxx17__normal_iteratorIPSt6vectorIiSaIiEES2_IS4_SaIS4_EEEES8_EvT_T0_ = comdat any

$_ZSt4swapIiSaIiEEvRSt6vectorIT_T0_ES5_ = comdat any

$_ZNSt6vectorIiSaIiEE4swapERS1_ = comdat any

$_ZN9__gnu_cxx14__alloc_traitsISaIiEiE10_S_on_swapERS1_S3_ = comdat any

$_ZSt15__alloc_on_swapISaIiEEvRT_S2_ = comdat any

$_ZSt16__insertion_sortIN9__gnu_cxx17__normal_iteratorIPSt6vectorIiSaIiEES2_IS4_SaIS4_EEEENS0_5__ops15_Iter_less_iterEEvT_SB_T0_ = comdat any

$_ZSt26__unguarded_insertion_sortIN9__gnu_cxx17__normal_iteratorIPSt6vectorIiSaIiEES2_IS4_SaIS4_EEEENS0_5__ops15_Iter_less_iterEEvT_SB_T0_ = comdat any

$_ZN9__gnu_cxxeqIPSt6vectorIiSaIiEES1_IS3_SaIS3_EEEEbRKNS_17__normal_iteratorIT_T0_EESC_ = comdat any

$_ZSt13move_backwardIN9__gnu_cxx17__normal_iteratorIPSt6vectorIiSaIiEES2_IS4_SaIS4_EEEES8_ET0_T_SA_S9_ = comdat any

$_ZSt25__unguarded_linear_insertIN9__gnu_cxx17__normal_iteratorIPSt6vectorIiSaIiEES2_IS4_SaIS4_EEEENS0_5__ops14_Val_less_iterEEvT_T0_ = comdat any

$_ZN9__gnu_cxx5__ops15__val_comp_iterENS0_15_Iter_less_iterE = comdat any

$_ZSt22__copy_move_backward_aILb1EN9__gnu_cxx17__normal_iteratorIPSt6vectorIiSaIiEES2_IS4_SaIS4_EEEES8_ET1_T0_SA_S9_ = comdat any

$_ZSt12__miter_baseIN9__gnu_cxx17__normal_iteratorIPSt6vectorIiSaIiEES2_IS4_SaIS4_EEEEET_S9_ = comdat any

$_ZNK9__gnu_cxx5__ops14_Val_less_iterclISt6vectorIiSaIiEENS_17__normal_iteratorIPS5_S3_IS5_SaIS5_EEEEEEbRT_T0_ = comdat any

$_ZTSZ18partition_filteredRKSt6vectorIiSaIiEESt8functionIFvRKS_IS1_SaIS1_EEEEiiEUlS8_E_ = comdat any

$_ZTIZ18partition_filteredRKSt6vectorIiSaIiEESt8functionIFvRKS_IS1_SaIS1_EEEEiiEUlS8_E_ = comdat any

@_ZStL8__ioinit = internal global %"class.std::ios_base::Init" zeroinitializer, align 1
@__dso_handle = external hidden global i8
@_ZSt4cout = external global %"class.std::basic_ostream", align 8
@.str = private unnamed_addr constant [49 x i8] c"cannot create std::vector larger than max_size()\00", align 1
@.str.1 = private unnamed_addr constant [16 x i8] c"vector::reserve\00", align 1
@.str.2 = private unnamed_addr constant [26 x i8] c"vector::_M_default_append\00", align 1
@.str.3 = private unnamed_addr constant [26 x i8] c"vector::_M_realloc_insert\00", align 1
@.str.4 = private unnamed_addr constant [24 x i8] c"vector::_M_range_insert\00", align 1
@_ZTVN10__cxxabiv117__class_type_infoE = external global i8*
@_ZTSZ18partition_filteredRKSt6vectorIiSaIiEESt8functionIFvRKS_IS1_SaIS1_EEEEiiEUlS8_E_ = linkonce_odr dso_local constant [83 x i8] c"Z18partition_filteredRKSt6vectorIiSaIiEESt8functionIFvRKS_IS1_SaIS1_EEEEiiEUlS8_E_\00", comdat, align 1
@_ZTIZ18partition_filteredRKSt6vectorIiSaIiEESt8functionIFvRKS_IS1_SaIS1_EEEEiiEUlS8_E_ = linkonce_odr dso_local constant { i8*, i8* } { i8* bitcast (i8** getelementptr inbounds (i8*, i8** @_ZTVN10__cxxabiv117__class_type_infoE, i64 2) to i8*), i8* getelementptr inbounds ([83 x i8], [83 x i8]* @_ZTSZ18partition_filteredRKSt6vectorIiSaIiEESt8functionIFvRKS_IS1_SaIS1_EEEEiiEUlS8_E_, i32 0, i32 0) }, comdat, align 8
@"_ZTSZ4mainE3$_0" = internal constant [12 x i8] c"Z4mainE3$_0\00", align 1
@"_ZTIZ4mainE3$_0" = internal constant { i8*, i8* } { i8* bitcast (i8** getelementptr inbounds (i8*, i8** @_ZTVN10__cxxabiv117__class_type_infoE, i64 2) to i8*), i8* getelementptr inbounds ([12 x i8], [12 x i8]* @"_ZTSZ4mainE3$_0", i32 0, i32 0) }, align 8
@llvm.global_ctors = appending global [1 x { i32, void ()*, i8* }] [{ i32, void ()*, i8* } { i32 65535, void ()* @_GLOBAL__sub_I_set_partition.cpp, i8* null }]

; Function Attrs: noinline uwtable
define internal void @__cxx_global_var_init() #0 section ".text.startup" {
  call void @_ZNSt8ios_base4InitC1Ev(%"class.std::ios_base::Init"* noundef nonnull align 1 dereferenceable(1) @_ZStL8__ioinit)
  %1 = call i32 @__cxa_atexit(void (i8*)* bitcast (void (%"class.std::ios_base::Init"*)* @_ZNSt8ios_base4InitD1Ev to void (i8*)*), i8* getelementptr inbounds (%"class.std::ios_base::Init", %"class.std::ios_base::Init"* @_ZStL8__ioinit, i32 0, i32 0), i8* @__dso_handle) #3
  ret void
}

declare void @_ZNSt8ios_base4InitC1Ev(%"class.std::ios_base::Init"* noundef nonnull align 1 dereferenceable(1)) unnamed_addr #1

; Function Attrs: nounwind
declare void @_ZNSt8ios_base4InitD1Ev(%"class.std::ios_base::Init"* noundef nonnull align 1 dereferenceable(1)) unnamed_addr #2

; Function Attrs: nounwind
declare i32 @__cxa_atexit(void (i8*)*, i8*, i8*) #3

; Function Attrs: mustprogress noinline norecurse optnone uwtable
define dso_local noundef i32 @main(i32 noundef %0, i8** noundef %1) #4 personality i8* bitcast (i32 (...)* @__gxx_personality_v0 to i8*) {
  %3 = alloca i32, align 4
  %4 = alloca i8**, align 8
  %5 = alloca i32, align 4
  %6 = alloca i32, align 4
  %7 = alloca %class.anon, align 8
  %8 = alloca %"class.std::vector", align 8
  %9 = alloca %"class.std::function", align 8
  %10 = alloca i8*, align 8
  %11 = alloca i32, align 4
  store i32 %0, i32* %3, align 4
  store i8** %1, i8*** %4, align 8
  store i32 1, i32* %5, align 4
  store i32 0, i32* %6, align 4
  %12 = getelementptr inbounds %class.anon, %class.anon* %7, i32 0, i32 0
  store i32* %6, i32** %12, align 8
  %13 = load i8**, i8*** %4, align 8
  %14 = getelementptr inbounds i8*, i8** %13, i64 1
  %15 = load i8*, i8** %14, align 8
  %16 = call i32 @atoi(i8* noundef %15) #19
  call void @_Z5rangeii(%"class.std::vector"* sret(%"class.std::vector") align 8 %8, i32 noundef 1, i32 noundef %16)
  call void @"_ZNSt8functionIFvRKSt6vectorIS0_IiSaIiEESaIS2_EEEEC2IRZ4mainE3$_0vEEOT_"(%"class.std::function"* noundef nonnull align 8 dereferenceable(32) %9, %class.anon* noundef nonnull align 8 dereferenceable(8) %7) #3
  invoke void @_Z18partition_filteredRKSt6vectorIiSaIiEESt8functionIFvRKS_IS1_SaIS1_EEEEii(%"class.std::vector"* noundef nonnull align 8 dereferenceable(24) %8, %"class.std::function"* noundef %9, i32 noundef 2, i32 noundef 0)
          to label %17 unwind label %23

17:                                               ; preds = %2
  call void @_ZNSt8functionIFvRKSt6vectorIS0_IiSaIiEESaIS2_EEEED2Ev(%"class.std::function"* noundef nonnull align 8 dereferenceable(32) %9) #3
  %18 = load i32, i32* %6, align 4
  %19 = invoke noundef nonnull align 8 dereferenceable(8) %"class.std::basic_ostream"* @_ZNSolsEi(%"class.std::basic_ostream"* noundef nonnull align 8 dereferenceable(8) @_ZSt4cout, i32 noundef %18)
          to label %20 unwind label %27

20:                                               ; preds = %17
  %21 = invoke noundef nonnull align 8 dereferenceable(8) %"class.std::basic_ostream"* @_ZNSolsEPFRSoS_E(%"class.std::basic_ostream"* noundef nonnull align 8 dereferenceable(8) %19, %"class.std::basic_ostream"* (%"class.std::basic_ostream"*)* noundef @_ZSt4endlIcSt11char_traitsIcEERSt13basic_ostreamIT_T0_ES6_)
          to label %22 unwind label %27

22:                                               ; preds = %20
  call void @_ZNSt6vectorIiSaIiEED2Ev(%"class.std::vector"* noundef nonnull align 8 dereferenceable(24) %8) #3
  ret i32 0

23:                                               ; preds = %2
  %24 = landingpad { i8*, i32 }
          cleanup
  %25 = extractvalue { i8*, i32 } %24, 0
  store i8* %25, i8** %10, align 8
  %26 = extractvalue { i8*, i32 } %24, 1
  store i32 %26, i32* %11, align 4
  call void @_ZNSt8functionIFvRKSt6vectorIS0_IiSaIiEESaIS2_EEEED2Ev(%"class.std::function"* noundef nonnull align 8 dereferenceable(32) %9) #3
  br label %31

27:                                               ; preds = %20, %17
  %28 = landingpad { i8*, i32 }
          cleanup
  %29 = extractvalue { i8*, i32 } %28, 0
  store i8* %29, i8** %10, align 8
  %30 = extractvalue { i8*, i32 } %28, 1
  store i32 %30, i32* %11, align 4
  br label %31

31:                                               ; preds = %27, %23
  call void @_ZNSt6vectorIiSaIiEED2Ev(%"class.std::vector"* noundef nonnull align 8 dereferenceable(24) %8) #3
  br label %32

32:                                               ; preds = %31
  %33 = load i8*, i8** %10, align 8
  %34 = load i32, i32* %11, align 4
  %35 = insertvalue { i8*, i32 } undef, i8* %33, 0
  %36 = insertvalue { i8*, i32 } %35, i32 %34, 1
  resume { i8*, i32 } %36
}

; Function Attrs: mustprogress noinline optnone uwtable
define linkonce_odr dso_local void @_Z5rangeii(%"class.std::vector"* noalias sret(%"class.std::vector") align 8 %0, i32 noundef %1, i32 noundef %2) #5 comdat personality i8* bitcast (i32 (...)* @__gxx_personality_v0 to i8*) {
  %4 = alloca i8*, align 8
  %5 = alloca i32, align 4
  %6 = alloca i32, align 4
  %7 = alloca i1, align 1
  %8 = alloca %"class.std::allocator", align 1
  %9 = alloca i8*, align 8
  %10 = alloca i32, align 4
  %11 = alloca i32, align 4
  %12 = alloca i32, align 4
  %13 = bitcast %"class.std::vector"* %0 to i8*
  store i8* %13, i8** %4, align 8
  store i32 %1, i32* %5, align 4
  store i32 %2, i32* %6, align 4
  store i1 false, i1* %7, align 1
  %14 = load i32, i32* %6, align 4
  %15 = load i32, i32* %5, align 4
  %16 = sub nsw i32 %14, %15
  %17 = sext i32 %16 to i64
  call void @_ZNSaIiEC2Ev(%"class.std::allocator"* noundef nonnull align 1 dereferenceable(1) %8) #3
  invoke void @_ZNSt6vectorIiSaIiEEC2EmRKS0_(%"class.std::vector"* noundef nonnull align 8 dereferenceable(24) %0, i64 noundef %17, %"class.std::allocator"* noundef nonnull align 1 dereferenceable(1) %8)
          to label %18 unwind label %33

18:                                               ; preds = %3
  call void @_ZNSaIiED2Ev(%"class.std::allocator"* noundef nonnull align 1 dereferenceable(1) %8) #3
  store i32 0, i32* %11, align 4
  %19 = load i32, i32* %5, align 4
  store i32 %19, i32* %12, align 4
  br label %20

20:                                               ; preds = %30, %18
  %21 = load i32, i32* %12, align 4
  %22 = load i32, i32* %6, align 4
  %23 = icmp slt i32 %21, %22
  br i1 %23, label %24, label %37

24:                                               ; preds = %20
  %25 = load i32, i32* %12, align 4
  %26 = load i32, i32* %11, align 4
  %27 = add i32 %26, 1
  store i32 %27, i32* %11, align 4
  %28 = zext i32 %26 to i64
  %29 = call noundef nonnull align 4 dereferenceable(4) i32* @_ZNSt6vectorIiSaIiEEixEm(%"class.std::vector"* noundef nonnull align 8 dereferenceable(24) %0, i64 noundef %28) #3
  store i32 %25, i32* %29, align 4
  br label %30

30:                                               ; preds = %24
  %31 = load i32, i32* %12, align 4
  %32 = add nsw i32 %31, 1
  store i32 %32, i32* %12, align 4
  br label %20, !llvm.loop !6

33:                                               ; preds = %3
  %34 = landingpad { i8*, i32 }
          cleanup
  %35 = extractvalue { i8*, i32 } %34, 0
  store i8* %35, i8** %9, align 8
  %36 = extractvalue { i8*, i32 } %34, 1
  store i32 %36, i32* %10, align 4
  call void @_ZNSaIiED2Ev(%"class.std::allocator"* noundef nonnull align 1 dereferenceable(1) %8) #3
  br label %41

37:                                               ; preds = %20
  store i1 true, i1* %7, align 1
  %38 = load i1, i1* %7, align 1
  br i1 %38, label %40, label %39

39:                                               ; preds = %37
  call void @_ZNSt6vectorIiSaIiEED2Ev(%"class.std::vector"* noundef nonnull align 8 dereferenceable(24) %0) #3
  br label %40

40:                                               ; preds = %39, %37
  ret void

41:                                               ; preds = %33
  %42 = load i8*, i8** %9, align 8
  %43 = load i32, i32* %10, align 4
  %44 = insertvalue { i8*, i32 } undef, i8* %42, 0
  %45 = insertvalue { i8*, i32 } %44, i32 %43, 1
  resume { i8*, i32 } %45
}

; Function Attrs: nounwind readonly willreturn
declare i32 @atoi(i8* noundef) #6

; Function Attrs: mustprogress noinline optnone uwtable
define linkonce_odr dso_local void @_Z18partition_filteredRKSt6vectorIiSaIiEESt8functionIFvRKS_IS1_SaIS1_EEEEii(%"class.std::vector"* noundef nonnull align 8 dereferenceable(24) %0, %"class.std::function"* noundef %1, i32 noundef %2, i32 noundef %3) #5 comdat personality i8* bitcast (i32 (...)* @__gxx_personality_v0 to i8*) {
  %5 = alloca %"class.std::vector"*, align 8
  %6 = alloca i32, align 4
  %7 = alloca i32, align 4
  %8 = alloca %"class.std::vector.0", align 8
  %9 = alloca %"class.std::initializer_list", align 8
  %10 = alloca [1 x %"class.std::vector"], align 8
  %11 = alloca %"class.std::vector"*, align 8
  %12 = alloca i8*, align 8
  %13 = alloca i32, align 4
  %14 = alloca %"class.std::allocator.2", align 1
  %15 = alloca i32, align 4
  %16 = alloca %class.anon.5, align 8
  %17 = alloca %"class.std::vector", align 8
  %18 = alloca %"class.__gnu_cxx::__normal_iterator", align 8
  %19 = alloca %"class.__gnu_cxx::__normal_iterator", align 8
  %20 = alloca %"class.__gnu_cxx::__normal_iterator", align 8
  %21 = alloca %"class.std::allocator", align 1
  %22 = alloca %"class.std::function", align 8
  store %"class.std::vector"* %0, %"class.std::vector"** %5, align 8
  store i32 %2, i32* %6, align 4
  store i32 %3, i32* %7, align 4
  %23 = load %"class.std::vector"*, %"class.std::vector"** %5, align 8
  %24 = call noundef i64 @_ZNKSt6vectorIiSaIiEE4sizeEv(%"class.std::vector"* noundef nonnull align 8 dereferenceable(24) %23) #3
  %25 = icmp eq i64 %24, 1
  br i1 %25, label %26, label %74

26:                                               ; preds = %4
  %27 = getelementptr inbounds [1 x %"class.std::vector"], [1 x %"class.std::vector"]* %10, i64 0, i64 0
  store %"class.std::vector"* %27, %"class.std::vector"** %11, align 8
  %28 = load %"class.std::vector"*, %"class.std::vector"** %5, align 8
  invoke void @_ZNSt6vectorIiSaIiEEC2ERKS1_(%"class.std::vector"* noundef nonnull align 8 dereferenceable(24) %27, %"class.std::vector"* noundef nonnull align 8 dereferenceable(24) %28)
          to label %29 unwind label %47

29:                                               ; preds = %26
  %30 = getelementptr inbounds %"class.std::initializer_list", %"class.std::initializer_list"* %9, i32 0, i32 0
  %31 = getelementptr inbounds [1 x %"class.std::vector"], [1 x %"class.std::vector"]* %10, i64 0, i64 0
  store %"class.std::vector"* %31, %"class.std::vector"** %30, align 8
  %32 = getelementptr inbounds %"class.std::initializer_list", %"class.std::initializer_list"* %9, i32 0, i32 1
  store i64 1, i64* %32, align 8
  call void @_ZNSaISt6vectorIiSaIiEEEC2Ev(%"class.std::allocator.2"* noundef nonnull align 1 dereferenceable(1) %14) #3
  %33 = bitcast %"class.std::initializer_list"* %9 to { %"class.std::vector"*, i64 }*
  %34 = getelementptr inbounds { %"class.std::vector"*, i64 }, { %"class.std::vector"*, i64 }* %33, i32 0, i32 0
  %35 = load %"class.std::vector"*, %"class.std::vector"** %34, align 8
  %36 = getelementptr inbounds { %"class.std::vector"*, i64 }, { %"class.std::vector"*, i64 }* %33, i32 0, i32 1
  %37 = load i64, i64* %36, align 8
  invoke void @_ZNSt6vectorIS_IiSaIiEESaIS1_EEC2ESt16initializer_listIS1_ERKS2_(%"class.std::vector.0"* noundef nonnull align 8 dereferenceable(24) %8, %"class.std::vector"* %35, i64 %37, %"class.std::allocator.2"* noundef nonnull align 1 dereferenceable(1) %14)
          to label %38 unwind label %58

38:                                               ; preds = %29
  invoke void @_ZNKSt8functionIFvRKSt6vectorIS0_IiSaIiEESaIS2_EEEEclES6_(%"class.std::function"* noundef nonnull align 8 dereferenceable(32) %1, %"class.std::vector.0"* noundef nonnull align 8 dereferenceable(24) %8)
          to label %39 unwind label %62

39:                                               ; preds = %38
  call void @_ZNSt6vectorIS_IiSaIiEESaIS1_EED2Ev(%"class.std::vector.0"* noundef nonnull align 8 dereferenceable(24) %8) #3
  call void @_ZNSaISt6vectorIiSaIiEEED2Ev(%"class.std::allocator.2"* noundef nonnull align 1 dereferenceable(1) %14) #3
  %40 = getelementptr inbounds [1 x %"class.std::vector"], [1 x %"class.std::vector"]* %10, i32 0, i32 0
  %41 = getelementptr inbounds %"class.std::vector", %"class.std::vector"* %40, i64 1
  br label %42

42:                                               ; preds = %42, %39
  %43 = phi %"class.std::vector"* [ %41, %39 ], [ %44, %42 ]
  %44 = getelementptr inbounds %"class.std::vector", %"class.std::vector"* %43, i64 -1
  call void @_ZNSt6vectorIiSaIiEED2Ev(%"class.std::vector"* noundef nonnull align 8 dereferenceable(24) %44) #3
  %45 = icmp eq %"class.std::vector"* %44, %40
  br i1 %45, label %46, label %42

46:                                               ; preds = %42
  br label %100

47:                                               ; preds = %26
  %48 = landingpad { i8*, i32 }
          cleanup
  %49 = extractvalue { i8*, i32 } %48, 0
  store i8* %49, i8** %12, align 8
  %50 = extractvalue { i8*, i32 } %48, 1
  store i32 %50, i32* %13, align 4
  %51 = load %"class.std::vector"*, %"class.std::vector"** %11, align 8
  %52 = icmp eq %"class.std::vector"* %27, %51
  br i1 %52, label %57, label %53

53:                                               ; preds = %53, %47
  %54 = phi %"class.std::vector"* [ %51, %47 ], [ %55, %53 ]
  %55 = getelementptr inbounds %"class.std::vector", %"class.std::vector"* %54, i64 -1
  call void @_ZNSt6vectorIiSaIiEED2Ev(%"class.std::vector"* noundef nonnull align 8 dereferenceable(24) %55) #3
  %56 = icmp eq %"class.std::vector"* %55, %27
  br i1 %56, label %57, label %53

57:                                               ; preds = %53, %47
  br label %114

58:                                               ; preds = %29
  %59 = landingpad { i8*, i32 }
          cleanup
  %60 = extractvalue { i8*, i32 } %59, 0
  store i8* %60, i8** %12, align 8
  %61 = extractvalue { i8*, i32 } %59, 1
  store i32 %61, i32* %13, align 4
  br label %66

62:                                               ; preds = %38
  %63 = landingpad { i8*, i32 }
          cleanup
  %64 = extractvalue { i8*, i32 } %63, 0
  store i8* %64, i8** %12, align 8
  %65 = extractvalue { i8*, i32 } %63, 1
  store i32 %65, i32* %13, align 4
  call void @_ZNSt6vectorIS_IiSaIiEESaIS1_EED2Ev(%"class.std::vector.0"* noundef nonnull align 8 dereferenceable(24) %8) #3
  br label %66

66:                                               ; preds = %62, %58
  call void @_ZNSaISt6vectorIiSaIiEEED2Ev(%"class.std::allocator.2"* noundef nonnull align 1 dereferenceable(1) %14) #3
  %67 = getelementptr inbounds [1 x %"class.std::vector"], [1 x %"class.std::vector"]* %10, i32 0, i32 0
  %68 = getelementptr inbounds %"class.std::vector", %"class.std::vector"* %67, i64 1
  br label %69

69:                                               ; preds = %69, %66
  %70 = phi %"class.std::vector"* [ %68, %66 ], [ %71, %69 ]
  %71 = getelementptr inbounds %"class.std::vector", %"class.std::vector"* %70, i64 -1
  call void @_ZNSt6vectorIiSaIiEED2Ev(%"class.std::vector"* noundef nonnull align 8 dereferenceable(24) %71) #3
  %72 = icmp eq %"class.std::vector"* %71, %67
  br i1 %72, label %73, label %69

73:                                               ; preds = %69
  br label %114

74:                                               ; preds = %4
  %75 = load %"class.std::vector"*, %"class.std::vector"** %5, align 8
  %76 = call noundef nonnull align 4 dereferenceable(4) i32* @_ZNKSt6vectorIiSaIiEEixEm(%"class.std::vector"* noundef nonnull align 8 dereferenceable(24) %75, i64 noundef 0) #3
  %77 = load i32, i32* %76, align 4
  store i32 %77, i32* %15, align 4
  %78 = getelementptr inbounds %class.anon.5, %class.anon.5* %16, i32 0, i32 0
  store i32* %15, i32** %78, align 8
  %79 = getelementptr inbounds %class.anon.5, %class.anon.5* %16, i32 0, i32 1
  store i32* %6, i32** %79, align 8
  %80 = getelementptr inbounds %class.anon.5, %class.anon.5* %16, i32 0, i32 2
  store i32* %7, i32** %80, align 8
  %81 = getelementptr inbounds %class.anon.5, %class.anon.5* %16, i32 0, i32 3
  store %"class.std::function"* %1, %"class.std::function"** %81, align 8
  %82 = load %"class.std::vector"*, %"class.std::vector"** %5, align 8
  %83 = call i32* @_ZNKSt6vectorIiSaIiEE5beginEv(%"class.std::vector"* noundef nonnull align 8 dereferenceable(24) %82) #3
  %84 = getelementptr inbounds %"class.__gnu_cxx::__normal_iterator", %"class.__gnu_cxx::__normal_iterator"* %19, i32 0, i32 0
  store i32* %83, i32** %84, align 8
  %85 = call i32* @_ZNK9__gnu_cxx17__normal_iteratorIPKiSt6vectorIiSaIiEEEplEl(%"class.__gnu_cxx::__normal_iterator"* noundef nonnull align 8 dereferenceable(8) %19, i64 noundef 1) #3
  %86 = getelementptr inbounds %"class.__gnu_cxx::__normal_iterator", %"class.__gnu_cxx::__normal_iterator"* %18, i32 0, i32 0
  store i32* %85, i32** %86, align 8
  %87 = load %"class.std::vector"*, %"class.std::vector"** %5, align 8
  %88 = call i32* @_ZNKSt6vectorIiSaIiEE3endEv(%"class.std::vector"* noundef nonnull align 8 dereferenceable(24) %87) #3
  %89 = getelementptr inbounds %"class.__gnu_cxx::__normal_iterator", %"class.__gnu_cxx::__normal_iterator"* %20, i32 0, i32 0
  store i32* %88, i32** %89, align 8
  call void @_ZNSaIiEC2Ev(%"class.std::allocator"* noundef nonnull align 1 dereferenceable(1) %21) #3
  %90 = getelementptr inbounds %"class.__gnu_cxx::__normal_iterator", %"class.__gnu_cxx::__normal_iterator"* %18, i32 0, i32 0
  %91 = load i32*, i32** %90, align 8
  %92 = getelementptr inbounds %"class.__gnu_cxx::__normal_iterator", %"class.__gnu_cxx::__normal_iterator"* %20, i32 0, i32 0
  %93 = load i32*, i32** %92, align 8
  invoke void @_ZNSt6vectorIiSaIiEEC2IN9__gnu_cxx17__normal_iteratorIPKiS1_EEvEET_S8_RKS0_(%"class.std::vector"* noundef nonnull align 8 dereferenceable(24) %17, i32* %91, i32* %93, %"class.std::allocator"* noundef nonnull align 1 dereferenceable(1) %21)
          to label %94 unwind label %101

94:                                               ; preds = %74
  call void @_ZNSaIiED2Ev(%"class.std::allocator"* noundef nonnull align 1 dereferenceable(1) %21) #3
  invoke void @_ZNSt8functionIFvRKSt6vectorIS0_IiSaIiEESaIS2_EEEEC2IRZ18partition_filteredRKS2_S8_iiEUlS6_E_vEEOT_(%"class.std::function"* noundef nonnull align 8 dereferenceable(32) %22, %class.anon.5* noundef nonnull align 8 dereferenceable(32) %16)
          to label %95 unwind label %105

95:                                               ; preds = %94
  %96 = load i32, i32* %6, align 4
  %97 = load i32, i32* %7, align 4
  %98 = add nsw i32 %97, 1
  invoke void @_Z18partition_filteredRKSt6vectorIiSaIiEESt8functionIFvRKS_IS1_SaIS1_EEEEii(%"class.std::vector"* noundef nonnull align 8 dereferenceable(24) %17, %"class.std::function"* noundef %22, i32 noundef %96, i32 noundef %98)
          to label %99 unwind label %109

99:                                               ; preds = %95
  call void @_ZNSt8functionIFvRKSt6vectorIS0_IiSaIiEESaIS2_EEEED2Ev(%"class.std::function"* noundef nonnull align 8 dereferenceable(32) %22) #3
  call void @_ZNSt6vectorIiSaIiEED2Ev(%"class.std::vector"* noundef nonnull align 8 dereferenceable(24) %17) #3
  br label %100

100:                                              ; preds = %99, %46
  ret void

101:                                              ; preds = %74
  %102 = landingpad { i8*, i32 }
          cleanup
  %103 = extractvalue { i8*, i32 } %102, 0
  store i8* %103, i8** %12, align 8
  %104 = extractvalue { i8*, i32 } %102, 1
  store i32 %104, i32* %13, align 4
  call void @_ZNSaIiED2Ev(%"class.std::allocator"* noundef nonnull align 1 dereferenceable(1) %21) #3
  br label %114

105:                                              ; preds = %94
  %106 = landingpad { i8*, i32 }
          cleanup
  %107 = extractvalue { i8*, i32 } %106, 0
  store i8* %107, i8** %12, align 8
  %108 = extractvalue { i8*, i32 } %106, 1
  store i32 %108, i32* %13, align 4
  br label %113

109:                                              ; preds = %95
  %110 = landingpad { i8*, i32 }
          cleanup
  %111 = extractvalue { i8*, i32 } %110, 0
  store i8* %111, i8** %12, align 8
  %112 = extractvalue { i8*, i32 } %110, 1
  store i32 %112, i32* %13, align 4
  call void @_ZNSt8functionIFvRKSt6vectorIS0_IiSaIiEESaIS2_EEEED2Ev(%"class.std::function"* noundef nonnull align 8 dereferenceable(32) %22) #3
  br label %113

113:                                              ; preds = %109, %105
  call void @_ZNSt6vectorIiSaIiEED2Ev(%"class.std::vector"* noundef nonnull align 8 dereferenceable(24) %17) #3
  br label %114

114:                                              ; preds = %113, %101, %73, %57
  %115 = load i8*, i8** %12, align 8
  %116 = load i32, i32* %13, align 4
  %117 = insertvalue { i8*, i32 } undef, i8* %115, 0
  %118 = insertvalue { i8*, i32 } %117, i32 %116, 1
  resume { i8*, i32 } %118
}

; Function Attrs: noinline nounwind optnone uwtable
define internal void @"_ZNSt8functionIFvRKSt6vectorIS0_IiSaIiEESaIS2_EEEEC2IRZ4mainE3$_0vEEOT_"(%"class.std::function"* noundef nonnull align 8 dereferenceable(32) %0, %class.anon* noundef nonnull align 8 dereferenceable(8) %1) unnamed_addr #7 align 2 personality i8* bitcast (i32 (...)* @__gxx_personality_v0 to i8*) {
  %3 = alloca %"class.std::function"*, align 8
  %4 = alloca %class.anon*, align 8
  %5 = alloca i8*, align 8
  %6 = alloca i32, align 4
  store %"class.std::function"* %0, %"class.std::function"** %3, align 8
  store %class.anon* %1, %class.anon** %4, align 8
  %7 = load %"class.std::function"*, %"class.std::function"** %3, align 8
  %8 = bitcast %"class.std::function"* %7 to %"struct.std::_Maybe_unary_or_binary_function"*
  %9 = bitcast %"class.std::function"* %7 to %"class.std::_Function_base"*
  %10 = bitcast %"class.std::_Function_base"* %9 to i8*
  %11 = getelementptr inbounds i8, i8* %10, i64 0
  call void @llvm.memset.p0i8.i64(i8* align 8 %11, i8 0, i64 24, i1 false)
  call void @_ZNSt14_Function_baseC2Ev(%"class.std::_Function_base"* noundef nonnull align 8 dereferenceable(24) %9) #3
  %12 = getelementptr inbounds %"class.std::function", %"class.std::function"* %7, i32 0, i32 1
  store void (%"union.std::_Any_data"*, %"class.std::vector.0"*)* null, void (%"union.std::_Any_data"*, %"class.std::vector.0"*)** %12, align 8
  %13 = load %class.anon*, %class.anon** %4, align 8
  %14 = invoke noundef zeroext i1 @"_ZNSt14_Function_base13_Base_managerIZ4mainE3$_0E21_M_not_empty_functionIS1_EEbRKT_"(%class.anon* noundef nonnull align 8 dereferenceable(8) %13)
          to label %15 unwind label %24

15:                                               ; preds = %2
  br i1 %14, label %16, label %29

16:                                               ; preds = %15
  %17 = bitcast %"class.std::function"* %7 to %"class.std::_Function_base"*
  %18 = getelementptr inbounds %"class.std::_Function_base", %"class.std::_Function_base"* %17, i32 0, i32 0
  %19 = load %class.anon*, %class.anon** %4, align 8
  %20 = call noundef nonnull align 8 dereferenceable(8) %class.anon* @"_ZSt7forwardIRZ4mainE3$_0EOT_RNSt16remove_referenceIS2_E4typeE"(%class.anon* noundef nonnull align 8 dereferenceable(8) %19) #3
  call void @"_ZNSt14_Function_base13_Base_managerIZ4mainE3$_0E15_M_init_functorIRS1_EEvRSt9_Any_dataOT_"(%"union.std::_Any_data"* noundef nonnull align 8 dereferenceable(16) %18, %class.anon* noundef nonnull align 8 dereferenceable(8) %20) #3
  %21 = getelementptr inbounds %"class.std::function", %"class.std::function"* %7, i32 0, i32 1
  store void (%"union.std::_Any_data"*, %"class.std::vector.0"*)* @"_ZNSt17_Function_handlerIFvRKSt6vectorIS0_IiSaIiEESaIS2_EEEZ4mainE3$_0E9_M_invokeERKSt9_Any_dataS6_", void (%"union.std::_Any_data"*, %"class.std::vector.0"*)** %21, align 8
  %22 = bitcast %"class.std::function"* %7 to %"class.std::_Function_base"*
  %23 = getelementptr inbounds %"class.std::_Function_base", %"class.std::_Function_base"* %22, i32 0, i32 1
  store i1 (%"union.std::_Any_data"*, %"union.std::_Any_data"*, i32)* @"_ZNSt17_Function_handlerIFvRKSt6vectorIS0_IiSaIiEESaIS2_EEEZ4mainE3$_0E10_M_managerERSt9_Any_dataRKSA_St18_Manager_operation", i1 (%"union.std::_Any_data"*, %"union.std::_Any_data"*, i32)** %23, align 8
  br label %29

24:                                               ; preds = %2
  %25 = landingpad { i8*, i32 }
          catch i8* null
  %26 = extractvalue { i8*, i32 } %25, 0
  store i8* %26, i8** %5, align 8
  %27 = extractvalue { i8*, i32 } %25, 1
  store i32 %27, i32* %6, align 4
  %28 = bitcast %"class.std::function"* %7 to %"class.std::_Function_base"*
  call void @_ZNSt14_Function_baseD2Ev(%"class.std::_Function_base"* noundef nonnull align 8 dereferenceable(24) %28) #3
  br label %30

29:                                               ; preds = %16, %15
  ret void

30:                                               ; preds = %24
  %31 = load i8*, i8** %5, align 8
  call void @__clang_call_terminate(i8* %31) #20
  unreachable
}

declare i32 @__gxx_personality_v0(...)

; Function Attrs: noinline nounwind optnone uwtable
define linkonce_odr dso_local void @_ZNSt8functionIFvRKSt6vectorIS0_IiSaIiEESaIS2_EEEED2Ev(%"class.std::function"* noundef nonnull align 8 dereferenceable(32) %0) unnamed_addr #7 comdat align 2 {
  %2 = alloca %"class.std::function"*, align 8
  store %"class.std::function"* %0, %"class.std::function"** %2, align 8
  %3 = load %"class.std::function"*, %"class.std::function"** %2, align 8
  %4 = bitcast %"class.std::function"* %3 to %"class.std::_Function_base"*
  call void @_ZNSt14_Function_baseD2Ev(%"class.std::_Function_base"* noundef nonnull align 8 dereferenceable(24) %4) #3
  ret void
}

declare noundef nonnull align 8 dereferenceable(8) %"class.std::basic_ostream"* @_ZNSolsEi(%"class.std::basic_ostream"* noundef nonnull align 8 dereferenceable(8), i32 noundef) #1

declare noundef nonnull align 8 dereferenceable(8) %"class.std::basic_ostream"* @_ZNSolsEPFRSoS_E(%"class.std::basic_ostream"* noundef nonnull align 8 dereferenceable(8), %"class.std::basic_ostream"* (%"class.std::basic_ostream"*)* noundef) #1

declare noundef nonnull align 8 dereferenceable(8) %"class.std::basic_ostream"* @_ZSt4endlIcSt11char_traitsIcEERSt13basic_ostreamIT_T0_ES6_(%"class.std::basic_ostream"* noundef nonnull align 8 dereferenceable(8)) #1

; Function Attrs: noinline nounwind optnone uwtable
define linkonce_odr dso_local void @_ZNSt6vectorIiSaIiEED2Ev(%"class.std::vector"* noundef nonnull align 8 dereferenceable(24) %0) unnamed_addr #7 comdat align 2 personality i8* bitcast (i32 (...)* @__gxx_personality_v0 to i8*) {
  %2 = alloca %"class.std::vector"*, align 8
  %3 = alloca i8*, align 8
  %4 = alloca i32, align 4
  store %"class.std::vector"* %0, %"class.std::vector"** %2, align 8
  %5 = load %"class.std::vector"*, %"class.std::vector"** %2, align 8
  %6 = bitcast %"class.std::vector"* %5 to %"struct.std::_Vector_base"*
  %7 = getelementptr inbounds %"struct.std::_Vector_base", %"struct.std::_Vector_base"* %6, i32 0, i32 0
  %8 = bitcast %"struct.std::_Vector_base<int, std::allocator<int>>::_Vector_impl"* %7 to %"struct.std::_Vector_base<int, std::allocator<int>>::_Vector_impl_data"*
  %9 = getelementptr inbounds %"struct.std::_Vector_base<int, std::allocator<int>>::_Vector_impl_data", %"struct.std::_Vector_base<int, std::allocator<int>>::_Vector_impl_data"* %8, i32 0, i32 0
  %10 = load i32*, i32** %9, align 8
  %11 = bitcast %"class.std::vector"* %5 to %"struct.std::_Vector_base"*
  %12 = getelementptr inbounds %"struct.std::_Vector_base", %"struct.std::_Vector_base"* %11, i32 0, i32 0
  %13 = bitcast %"struct.std::_Vector_base<int, std::allocator<int>>::_Vector_impl"* %12 to %"struct.std::_Vector_base<int, std::allocator<int>>::_Vector_impl_data"*
  %14 = getelementptr inbounds %"struct.std::_Vector_base<int, std::allocator<int>>::_Vector_impl_data", %"struct.std::_Vector_base<int, std::allocator<int>>::_Vector_impl_data"* %13, i32 0, i32 1
  %15 = load i32*, i32** %14, align 8
  %16 = bitcast %"class.std::vector"* %5 to %"struct.std::_Vector_base"*
  %17 = call noundef nonnull align 1 dereferenceable(1) %"class.std::allocator"* @_ZNSt12_Vector_baseIiSaIiEE19_M_get_Tp_allocatorEv(%"struct.std::_Vector_base"* noundef nonnull align 8 dereferenceable(24) %16) #3
  invoke void @_ZSt8_DestroyIPiiEvT_S1_RSaIT0_E(i32* noundef %10, i32* noundef %15, %"class.std::allocator"* noundef nonnull align 1 dereferenceable(1) %17)
          to label %18 unwind label %20

18:                                               ; preds = %1
  %19 = bitcast %"class.std::vector"* %5 to %"struct.std::_Vector_base"*
  call void @_ZNSt12_Vector_baseIiSaIiEED2Ev(%"struct.std::_Vector_base"* noundef nonnull align 8 dereferenceable(24) %19) #3
  ret void

20:                                               ; preds = %1
  %21 = landingpad { i8*, i32 }
          catch i8* null
  %22 = extractvalue { i8*, i32 } %21, 0
  store i8* %22, i8** %3, align 8
  %23 = extractvalue { i8*, i32 } %21, 1
  store i32 %23, i32* %4, align 4
  %24 = bitcast %"class.std::vector"* %5 to %"struct.std::_Vector_base"*
  call void @_ZNSt12_Vector_baseIiSaIiEED2Ev(%"struct.std::_Vector_base"* noundef nonnull align 8 dereferenceable(24) %24) #3
  br label %25

25:                                               ; preds = %20
  %26 = load i8*, i8** %3, align 8
  call void @__clang_call_terminate(i8* %26) #20
  unreachable
}

; Function Attrs: noinline nounwind optnone uwtable
define linkonce_odr dso_local void @_ZNSaIiEC2Ev(%"class.std::allocator"* noundef nonnull align 1 dereferenceable(1) %0) unnamed_addr #7 comdat align 2 {
  %2 = alloca %"class.std::allocator"*, align 8
  store %"class.std::allocator"* %0, %"class.std::allocator"** %2, align 8
  %3 = load %"class.std::allocator"*, %"class.std::allocator"** %2, align 8
  %4 = bitcast %"class.std::allocator"* %3 to %"class.__gnu_cxx::new_allocator"*
  call void @_ZN9__gnu_cxx13new_allocatorIiEC2Ev(%"class.__gnu_cxx::new_allocator"* noundef nonnull align 1 dereferenceable(1) %4) #3
  ret void
}

; Function Attrs: noinline optnone uwtable
define linkonce_odr dso_local void @_ZNSt6vectorIiSaIiEEC2EmRKS0_(%"class.std::vector"* noundef nonnull align 8 dereferenceable(24) %0, i64 noundef %1, %"class.std::allocator"* noundef nonnull align 1 dereferenceable(1) %2) unnamed_addr #8 comdat align 2 personality i8* bitcast (i32 (...)* @__gxx_personality_v0 to i8*) {
  %4 = alloca %"class.std::vector"*, align 8
  %5 = alloca i64, align 8
  %6 = alloca %"class.std::allocator"*, align 8
  %7 = alloca i8*, align 8
  %8 = alloca i32, align 4
  store %"class.std::vector"* %0, %"class.std::vector"** %4, align 8
  store i64 %1, i64* %5, align 8
  store %"class.std::allocator"* %2, %"class.std::allocator"** %6, align 8
  %9 = load %"class.std::vector"*, %"class.std::vector"** %4, align 8
  %10 = bitcast %"class.std::vector"* %9 to %"struct.std::_Vector_base"*
  %11 = load i64, i64* %5, align 8
  %12 = load %"class.std::allocator"*, %"class.std::allocator"** %6, align 8
  %13 = call noundef i64 @_ZNSt6vectorIiSaIiEE17_S_check_init_lenEmRKS0_(i64 noundef %11, %"class.std::allocator"* noundef nonnull align 1 dereferenceable(1) %12)
  %14 = load %"class.std::allocator"*, %"class.std::allocator"** %6, align 8
  call void @_ZNSt12_Vector_baseIiSaIiEEC2EmRKS0_(%"struct.std::_Vector_base"* noundef nonnull align 8 dereferenceable(24) %10, i64 noundef %13, %"class.std::allocator"* noundef nonnull align 1 dereferenceable(1) %14)
  %15 = load i64, i64* %5, align 8
  invoke void @_ZNSt6vectorIiSaIiEE21_M_default_initializeEm(%"class.std::vector"* noundef nonnull align 8 dereferenceable(24) %9, i64 noundef %15)
          to label %16 unwind label %17

16:                                               ; preds = %3
  ret void

17:                                               ; preds = %3
  %18 = landingpad { i8*, i32 }
          cleanup
  %19 = extractvalue { i8*, i32 } %18, 0
  store i8* %19, i8** %7, align 8
  %20 = extractvalue { i8*, i32 } %18, 1
  store i32 %20, i32* %8, align 4
  %21 = bitcast %"class.std::vector"* %9 to %"struct.std::_Vector_base"*
  call void @_ZNSt12_Vector_baseIiSaIiEED2Ev(%"struct.std::_Vector_base"* noundef nonnull align 8 dereferenceable(24) %21) #3
  br label %22

22:                                               ; preds = %17
  %23 = load i8*, i8** %7, align 8
  %24 = load i32, i32* %8, align 4
  %25 = insertvalue { i8*, i32 } undef, i8* %23, 0
  %26 = insertvalue { i8*, i32 } %25, i32 %24, 1
  resume { i8*, i32 } %26
}

; Function Attrs: noinline nounwind optnone uwtable
define linkonce_odr dso_local void @_ZNSaIiED2Ev(%"class.std::allocator"* noundef nonnull align 1 dereferenceable(1) %0) unnamed_addr #7 comdat align 2 {
  %2 = alloca %"class.std::allocator"*, align 8
  store %"class.std::allocator"* %0, %"class.std::allocator"** %2, align 8
  %3 = load %"class.std::allocator"*, %"class.std::allocator"** %2, align 8
  %4 = bitcast %"class.std::allocator"* %3 to %"class.__gnu_cxx::new_allocator"*
  call void @_ZN9__gnu_cxx13new_allocatorIiED2Ev(%"class.__gnu_cxx::new_allocator"* noundef nonnull align 1 dereferenceable(1) %4) #3
  ret void
}

; Function Attrs: mustprogress noinline nounwind optnone uwtable
define linkonce_odr dso_local noundef nonnull align 4 dereferenceable(4) i32* @_ZNSt6vectorIiSaIiEEixEm(%"class.std::vector"* noundef nonnull align 8 dereferenceable(24) %0, i64 noundef %1) #9 comdat align 2 {
  %3 = alloca %"class.std::vector"*, align 8
  %4 = alloca i64, align 8
  store %"class.std::vector"* %0, %"class.std::vector"** %3, align 8
  store i64 %1, i64* %4, align 8
  %5 = load %"class.std::vector"*, %"class.std::vector"** %3, align 8
  %6 = bitcast %"class.std::vector"* %5 to %"struct.std::_Vector_base"*
  %7 = getelementptr inbounds %"struct.std::_Vector_base", %"struct.std::_Vector_base"* %6, i32 0, i32 0
  %8 = bitcast %"struct.std::_Vector_base<int, std::allocator<int>>::_Vector_impl"* %7 to %"struct.std::_Vector_base<int, std::allocator<int>>::_Vector_impl_data"*
  %9 = getelementptr inbounds %"struct.std::_Vector_base<int, std::allocator<int>>::_Vector_impl_data", %"struct.std::_Vector_base<int, std::allocator<int>>::_Vector_impl_data"* %8, i32 0, i32 0
  %10 = load i32*, i32** %9, align 8
  %11 = load i64, i64* %4, align 8
  %12 = getelementptr inbounds i32, i32* %10, i64 %11
  ret i32* %12
}

; Function Attrs: noinline nounwind optnone uwtable
define linkonce_odr dso_local void @_ZN9__gnu_cxx13new_allocatorIiEC2Ev(%"class.__gnu_cxx::new_allocator"* noundef nonnull align 1 dereferenceable(1) %0) unnamed_addr #7 comdat align 2 {
  %2 = alloca %"class.__gnu_cxx::new_allocator"*, align 8
  store %"class.__gnu_cxx::new_allocator"* %0, %"class.__gnu_cxx::new_allocator"** %2, align 8
  %3 = load %"class.__gnu_cxx::new_allocator"*, %"class.__gnu_cxx::new_allocator"** %2, align 8
  ret void
}

; Function Attrs: mustprogress noinline optnone uwtable
define linkonce_odr dso_local noundef i64 @_ZNSt6vectorIiSaIiEE17_S_check_init_lenEmRKS0_(i64 noundef %0, %"class.std::allocator"* noundef nonnull align 1 dereferenceable(1) %1) #5 comdat align 2 {
  %3 = alloca i64, align 8
  %4 = alloca %"class.std::allocator"*, align 8
  %5 = alloca %"class.std::allocator", align 1
  store i64 %0, i64* %3, align 8
  store %"class.std::allocator"* %1, %"class.std::allocator"** %4, align 8
  %6 = load i64, i64* %3, align 8
  %7 = load %"class.std::allocator"*, %"class.std::allocator"** %4, align 8
  call void @_ZNSaIiEC2ERKS_(%"class.std::allocator"* noundef nonnull align 1 dereferenceable(1) %5, %"class.std::allocator"* noundef nonnull align 1 dereferenceable(1) %7) #3
  %8 = call noundef i64 @_ZNSt6vectorIiSaIiEE11_S_max_sizeERKS0_(%"class.std::allocator"* noundef nonnull align 1 dereferenceable(1) %5) #3
  %9 = icmp ugt i64 %6, %8
  call void @_ZNSaIiED2Ev(%"class.std::allocator"* noundef nonnull align 1 dereferenceable(1) %5) #3
  br i1 %9, label %10, label %11

10:                                               ; preds = %2
  call void @_ZSt20__throw_length_errorPKc(i8* noundef getelementptr inbounds ([49 x i8], [49 x i8]* @.str, i64 0, i64 0)) #21
  unreachable

11:                                               ; preds = %2
  %12 = load i64, i64* %3, align 8
  ret i64 %12
}

; Function Attrs: noinline optnone uwtable
define linkonce_odr dso_local void @_ZNSt12_Vector_baseIiSaIiEEC2EmRKS0_(%"struct.std::_Vector_base"* noundef nonnull align 8 dereferenceable(24) %0, i64 noundef %1, %"class.std::allocator"* noundef nonnull align 1 dereferenceable(1) %2) unnamed_addr #8 comdat align 2 personality i8* bitcast (i32 (...)* @__gxx_personality_v0 to i8*) {
  %4 = alloca %"struct.std::_Vector_base"*, align 8
  %5 = alloca i64, align 8
  %6 = alloca %"class.std::allocator"*, align 8
  %7 = alloca i8*, align 8
  %8 = alloca i32, align 4
  store %"struct.std::_Vector_base"* %0, %"struct.std::_Vector_base"** %4, align 8
  store i64 %1, i64* %5, align 8
  store %"class.std::allocator"* %2, %"class.std::allocator"** %6, align 8
  %9 = load %"struct.std::_Vector_base"*, %"struct.std::_Vector_base"** %4, align 8
  %10 = getelementptr inbounds %"struct.std::_Vector_base", %"struct.std::_Vector_base"* %9, i32 0, i32 0
  %11 = load %"class.std::allocator"*, %"class.std::allocator"** %6, align 8
  call void @_ZNSt12_Vector_baseIiSaIiEE12_Vector_implC2ERKS0_(%"struct.std::_Vector_base<int, std::allocator<int>>::_Vector_impl"* noundef nonnull align 8 dereferenceable(24) %10, %"class.std::allocator"* noundef nonnull align 1 dereferenceable(1) %11) #3
  %12 = load i64, i64* %5, align 8
  invoke void @_ZNSt12_Vector_baseIiSaIiEE17_M_create_storageEm(%"struct.std::_Vector_base"* noundef nonnull align 8 dereferenceable(24) %9, i64 noundef %12)
          to label %13 unwind label %14

13:                                               ; preds = %3
  ret void

14:                                               ; preds = %3
  %15 = landingpad { i8*, i32 }
          cleanup
  %16 = extractvalue { i8*, i32 } %15, 0
  store i8* %16, i8** %7, align 8
  %17 = extractvalue { i8*, i32 } %15, 1
  store i32 %17, i32* %8, align 4
  call void @_ZNSt12_Vector_baseIiSaIiEE12_Vector_implD2Ev(%"struct.std::_Vector_base<int, std::allocator<int>>::_Vector_impl"* noundef nonnull align 8 dereferenceable(24) %10) #3
  br label %18

18:                                               ; preds = %14
  %19 = load i8*, i8** %7, align 8
  %20 = load i32, i32* %8, align 4
  %21 = insertvalue { i8*, i32 } undef, i8* %19, 0
  %22 = insertvalue { i8*, i32 } %21, i32 %20, 1
  resume { i8*, i32 } %22
}

; Function Attrs: mustprogress noinline optnone uwtable
define linkonce_odr dso_local void @_ZNSt6vectorIiSaIiEE21_M_default_initializeEm(%"class.std::vector"* noundef nonnull align 8 dereferenceable(24) %0, i64 noundef %1) #5 comdat align 2 {
  %3 = alloca %"class.std::vector"*, align 8
  %4 = alloca i64, align 8
  store %"class.std::vector"* %0, %"class.std::vector"** %3, align 8
  store i64 %1, i64* %4, align 8
  %5 = load %"class.std::vector"*, %"class.std::vector"** %3, align 8
  %6 = bitcast %"class.std::vector"* %5 to %"struct.std::_Vector_base"*
  %7 = getelementptr inbounds %"struct.std::_Vector_base", %"struct.std::_Vector_base"* %6, i32 0, i32 0
  %8 = bitcast %"struct.std::_Vector_base<int, std::allocator<int>>::_Vector_impl"* %7 to %"struct.std::_Vector_base<int, std::allocator<int>>::_Vector_impl_data"*
  %9 = getelementptr inbounds %"struct.std::_Vector_base<int, std::allocator<int>>::_Vector_impl_data", %"struct.std::_Vector_base<int, std::allocator<int>>::_Vector_impl_data"* %8, i32 0, i32 0
  %10 = load i32*, i32** %9, align 8
  %11 = load i64, i64* %4, align 8
  %12 = bitcast %"class.std::vector"* %5 to %"struct.std::_Vector_base"*
  %13 = call noundef nonnull align 1 dereferenceable(1) %"class.std::allocator"* @_ZNSt12_Vector_baseIiSaIiEE19_M_get_Tp_allocatorEv(%"struct.std::_Vector_base"* noundef nonnull align 8 dereferenceable(24) %12) #3
  %14 = call noundef i32* @_ZSt27__uninitialized_default_n_aIPimiET_S1_T0_RSaIT1_E(i32* noundef %10, i64 noundef %11, %"class.std::allocator"* noundef nonnull align 1 dereferenceable(1) %13)
  %15 = bitcast %"class.std::vector"* %5 to %"struct.std::_Vector_base"*
  %16 = getelementptr inbounds %"struct.std::_Vector_base", %"struct.std::_Vector_base"* %15, i32 0, i32 0
  %17 = bitcast %"struct.std::_Vector_base<int, std::allocator<int>>::_Vector_impl"* %16 to %"struct.std::_Vector_base<int, std::allocator<int>>::_Vector_impl_data"*
  %18 = getelementptr inbounds %"struct.std::_Vector_base<int, std::allocator<int>>::_Vector_impl_data", %"struct.std::_Vector_base<int, std::allocator<int>>::_Vector_impl_data"* %17, i32 0, i32 1
  store i32* %14, i32** %18, align 8
  ret void
}

; Function Attrs: noinline nounwind optnone uwtable
define linkonce_odr dso_local void @_ZNSt12_Vector_baseIiSaIiEED2Ev(%"struct.std::_Vector_base"* noundef nonnull align 8 dereferenceable(24) %0) unnamed_addr #7 comdat align 2 personality i8* bitcast (i32 (...)* @__gxx_personality_v0 to i8*) {
  %2 = alloca %"struct.std::_Vector_base"*, align 8
  %3 = alloca i8*, align 8
  %4 = alloca i32, align 4
  store %"struct.std::_Vector_base"* %0, %"struct.std::_Vector_base"** %2, align 8
  %5 = load %"struct.std::_Vector_base"*, %"struct.std::_Vector_base"** %2, align 8
  %6 = getelementptr inbounds %"struct.std::_Vector_base", %"struct.std::_Vector_base"* %5, i32 0, i32 0
  %7 = bitcast %"struct.std::_Vector_base<int, std::allocator<int>>::_Vector_impl"* %6 to %"struct.std::_Vector_base<int, std::allocator<int>>::_Vector_impl_data"*
  %8 = getelementptr inbounds %"struct.std::_Vector_base<int, std::allocator<int>>::_Vector_impl_data", %"struct.std::_Vector_base<int, std::allocator<int>>::_Vector_impl_data"* %7, i32 0, i32 0
  %9 = load i32*, i32** %8, align 8
  %10 = getelementptr inbounds %"struct.std::_Vector_base", %"struct.std::_Vector_base"* %5, i32 0, i32 0
  %11 = bitcast %"struct.std::_Vector_base<int, std::allocator<int>>::_Vector_impl"* %10 to %"struct.std::_Vector_base<int, std::allocator<int>>::_Vector_impl_data"*
  %12 = getelementptr inbounds %"struct.std::_Vector_base<int, std::allocator<int>>::_Vector_impl_data", %"struct.std::_Vector_base<int, std::allocator<int>>::_Vector_impl_data"* %11, i32 0, i32 2
  %13 = load i32*, i32** %12, align 8
  %14 = getelementptr inbounds %"struct.std::_Vector_base", %"struct.std::_Vector_base"* %5, i32 0, i32 0
  %15 = bitcast %"struct.std::_Vector_base<int, std::allocator<int>>::_Vector_impl"* %14 to %"struct.std::_Vector_base<int, std::allocator<int>>::_Vector_impl_data"*
  %16 = getelementptr inbounds %"struct.std::_Vector_base<int, std::allocator<int>>::_Vector_impl_data", %"struct.std::_Vector_base<int, std::allocator<int>>::_Vector_impl_data"* %15, i32 0, i32 0
  %17 = load i32*, i32** %16, align 8
  %18 = ptrtoint i32* %13 to i64
  %19 = ptrtoint i32* %17 to i64
  %20 = sub i64 %18, %19
  %21 = sdiv exact i64 %20, 4
  invoke void @_ZNSt12_Vector_baseIiSaIiEE13_M_deallocateEPim(%"struct.std::_Vector_base"* noundef nonnull align 8 dereferenceable(24) %5, i32* noundef %9, i64 noundef %21)
          to label %22 unwind label %24

22:                                               ; preds = %1
  %23 = getelementptr inbounds %"struct.std::_Vector_base", %"struct.std::_Vector_base"* %5, i32 0, i32 0
  call void @_ZNSt12_Vector_baseIiSaIiEE12_Vector_implD2Ev(%"struct.std::_Vector_base<int, std::allocator<int>>::_Vector_impl"* noundef nonnull align 8 dereferenceable(24) %23) #3
  ret void

24:                                               ; preds = %1
  %25 = landingpad { i8*, i32 }
          catch i8* null
  %26 = extractvalue { i8*, i32 } %25, 0
  store i8* %26, i8** %3, align 8
  %27 = extractvalue { i8*, i32 } %25, 1
  store i32 %27, i32* %4, align 4
  %28 = getelementptr inbounds %"struct.std::_Vector_base", %"struct.std::_Vector_base"* %5, i32 0, i32 0
  call void @_ZNSt12_Vector_baseIiSaIiEE12_Vector_implD2Ev(%"struct.std::_Vector_base<int, std::allocator<int>>::_Vector_impl"* noundef nonnull align 8 dereferenceable(24) %28) #3
  br label %29

29:                                               ; preds = %24
  %30 = load i8*, i8** %3, align 8
  call void @__clang_call_terminate(i8* %30) #20
  unreachable
}

; Function Attrs: mustprogress noinline nounwind optnone uwtable
define linkonce_odr dso_local noundef i64 @_ZNSt6vectorIiSaIiEE11_S_max_sizeERKS0_(%"class.std::allocator"* noundef nonnull align 1 dereferenceable(1) %0) #9 comdat align 2 personality i8* bitcast (i32 (...)* @__gxx_personality_v0 to i8*) {
  %2 = alloca %"class.std::allocator"*, align 8
  %3 = alloca i64, align 8
  %4 = alloca i64, align 8
  store %"class.std::allocator"* %0, %"class.std::allocator"** %2, align 8
  store i64 2305843009213693951, i64* %3, align 8
  %5 = load %"class.std::allocator"*, %"class.std::allocator"** %2, align 8
  %6 = call noundef i64 @_ZNSt16allocator_traitsISaIiEE8max_sizeERKS0_(%"class.std::allocator"* noundef nonnull align 1 dereferenceable(1) %5) #3
  store i64 %6, i64* %4, align 8
  %7 = invoke noundef nonnull align 8 dereferenceable(8) i64* @_ZSt3minImERKT_S2_S2_(i64* noundef nonnull align 8 dereferenceable(8) %3, i64* noundef nonnull align 8 dereferenceable(8) %4)
          to label %8 unwind label %10

8:                                                ; preds = %1
  %9 = load i64, i64* %7, align 8
  ret i64 %9

10:                                               ; preds = %1
  %11 = landingpad { i8*, i32 }
          catch i8* null
  %12 = extractvalue { i8*, i32 } %11, 0
  call void @__clang_call_terminate(i8* %12) #20
  unreachable
}

; Function Attrs: noinline nounwind optnone uwtable
define linkonce_odr dso_local void @_ZNSaIiEC2ERKS_(%"class.std::allocator"* noundef nonnull align 1 dereferenceable(1) %0, %"class.std::allocator"* noundef nonnull align 1 dereferenceable(1) %1) unnamed_addr #7 comdat align 2 {
  %3 = alloca %"class.std::allocator"*, align 8
  %4 = alloca %"class.std::allocator"*, align 8
  store %"class.std::allocator"* %0, %"class.std::allocator"** %3, align 8
  store %"class.std::allocator"* %1, %"class.std::allocator"** %4, align 8
  %5 = load %"class.std::allocator"*, %"class.std::allocator"** %3, align 8
  %6 = bitcast %"class.std::allocator"* %5 to %"class.__gnu_cxx::new_allocator"*
  %7 = load %"class.std::allocator"*, %"class.std::allocator"** %4, align 8
  %8 = bitcast %"class.std::allocator"* %7 to %"class.__gnu_cxx::new_allocator"*
  call void @_ZN9__gnu_cxx13new_allocatorIiEC2ERKS1_(%"class.__gnu_cxx::new_allocator"* noundef nonnull align 1 dereferenceable(1) %6, %"class.__gnu_cxx::new_allocator"* noundef nonnull align 1 dereferenceable(1) %8) #3
  ret void
}

; Function Attrs: noreturn
declare void @_ZSt20__throw_length_errorPKc(i8* noundef) #10

; Function Attrs: mustprogress noinline nounwind optnone uwtable
define linkonce_odr dso_local noundef i64 @_ZNSt16allocator_traitsISaIiEE8max_sizeERKS0_(%"class.std::allocator"* noundef nonnull align 1 dereferenceable(1) %0) #9 comdat align 2 {
  %2 = alloca %"class.std::allocator"*, align 8
  store %"class.std::allocator"* %0, %"class.std::allocator"** %2, align 8
  %3 = load %"class.std::allocator"*, %"class.std::allocator"** %2, align 8
  %4 = bitcast %"class.std::allocator"* %3 to %"class.__gnu_cxx::new_allocator"*
  %5 = call noundef i64 @_ZNK9__gnu_cxx13new_allocatorIiE8max_sizeEv(%"class.__gnu_cxx::new_allocator"* noundef nonnull align 1 dereferenceable(1) %4) #3
  ret i64 %5
}

; Function Attrs: mustprogress noinline nounwind optnone uwtable
define linkonce_odr dso_local noundef nonnull align 8 dereferenceable(8) i64* @_ZSt3minImERKT_S2_S2_(i64* noundef nonnull align 8 dereferenceable(8) %0, i64* noundef nonnull align 8 dereferenceable(8) %1) #9 comdat {
  %3 = alloca i64*, align 8
  %4 = alloca i64*, align 8
  %5 = alloca i64*, align 8
  store i64* %0, i64** %4, align 8
  store i64* %1, i64** %5, align 8
  %6 = load i64*, i64** %5, align 8
  %7 = load i64, i64* %6, align 8
  %8 = load i64*, i64** %4, align 8
  %9 = load i64, i64* %8, align 8
  %10 = icmp ult i64 %7, %9
  br i1 %10, label %11, label %13

11:                                               ; preds = %2
  %12 = load i64*, i64** %5, align 8
  store i64* %12, i64** %3, align 8
  br label %15

13:                                               ; preds = %2
  %14 = load i64*, i64** %4, align 8
  store i64* %14, i64** %3, align 8
  br label %15

15:                                               ; preds = %13, %11
  %16 = load i64*, i64** %3, align 8
  ret i64* %16
}

; Function Attrs: noinline noreturn nounwind
define linkonce_odr hidden void @__clang_call_terminate(i8* %0) #11 comdat {
  %2 = call i8* @__cxa_begin_catch(i8* %0) #3
  call void @_ZSt9terminatev() #20
  unreachable
}

declare i8* @__cxa_begin_catch(i8*)

declare void @_ZSt9terminatev()

; Function Attrs: mustprogress noinline nounwind optnone uwtable
define linkonce_odr dso_local noundef i64 @_ZNK9__gnu_cxx13new_allocatorIiE8max_sizeEv(%"class.__gnu_cxx::new_allocator"* noundef nonnull align 1 dereferenceable(1) %0) #9 comdat align 2 {
  %2 = alloca %"class.__gnu_cxx::new_allocator"*, align 8
  store %"class.__gnu_cxx::new_allocator"* %0, %"class.__gnu_cxx::new_allocator"** %2, align 8
  %3 = load %"class.__gnu_cxx::new_allocator"*, %"class.__gnu_cxx::new_allocator"** %2, align 8
  %4 = call noundef i64 @_ZNK9__gnu_cxx13new_allocatorIiE11_M_max_sizeEv(%"class.__gnu_cxx::new_allocator"* noundef nonnull align 1 dereferenceable(1) %3) #3
  ret i64 %4
}

; Function Attrs: mustprogress noinline nounwind optnone uwtable
define linkonce_odr dso_local noundef i64 @_ZNK9__gnu_cxx13new_allocatorIiE11_M_max_sizeEv(%"class.__gnu_cxx::new_allocator"* noundef nonnull align 1 dereferenceable(1) %0) #9 comdat align 2 {
  %2 = alloca %"class.__gnu_cxx::new_allocator"*, align 8
  store %"class.__gnu_cxx::new_allocator"* %0, %"class.__gnu_cxx::new_allocator"** %2, align 8
  %3 = load %"class.__gnu_cxx::new_allocator"*, %"class.__gnu_cxx::new_allocator"** %2, align 8
  ret i64 2305843009213693951
}

; Function Attrs: noinline nounwind optnone uwtable
define linkonce_odr dso_local void @_ZN9__gnu_cxx13new_allocatorIiEC2ERKS1_(%"class.__gnu_cxx::new_allocator"* noundef nonnull align 1 dereferenceable(1) %0, %"class.__gnu_cxx::new_allocator"* noundef nonnull align 1 dereferenceable(1) %1) unnamed_addr #7 comdat align 2 {
  %3 = alloca %"class.__gnu_cxx::new_allocator"*, align 8
  %4 = alloca %"class.__gnu_cxx::new_allocator"*, align 8
  store %"class.__gnu_cxx::new_allocator"* %0, %"class.__gnu_cxx::new_allocator"** %3, align 8
  store %"class.__gnu_cxx::new_allocator"* %1, %"class.__gnu_cxx::new_allocator"** %4, align 8
  %5 = load %"class.__gnu_cxx::new_allocator"*, %"class.__gnu_cxx::new_allocator"** %3, align 8
  ret void
}

; Function Attrs: noinline nounwind optnone uwtable
define linkonce_odr dso_local void @_ZNSt12_Vector_baseIiSaIiEE12_Vector_implC2ERKS0_(%"struct.std::_Vector_base<int, std::allocator<int>>::_Vector_impl"* noundef nonnull align 8 dereferenceable(24) %0, %"class.std::allocator"* noundef nonnull align 1 dereferenceable(1) %1) unnamed_addr #7 comdat align 2 {
  %3 = alloca %"struct.std::_Vector_base<int, std::allocator<int>>::_Vector_impl"*, align 8
  %4 = alloca %"class.std::allocator"*, align 8
  store %"struct.std::_Vector_base<int, std::allocator<int>>::_Vector_impl"* %0, %"struct.std::_Vector_base<int, std::allocator<int>>::_Vector_impl"** %3, align 8
  store %"class.std::allocator"* %1, %"class.std::allocator"** %4, align 8
  %5 = load %"struct.std::_Vector_base<int, std::allocator<int>>::_Vector_impl"*, %"struct.std::_Vector_base<int, std::allocator<int>>::_Vector_impl"** %3, align 8
  %6 = bitcast %"struct.std::_Vector_base<int, std::allocator<int>>::_Vector_impl"* %5 to %"class.std::allocator"*
  %7 = load %"class.std::allocator"*, %"class.std::allocator"** %4, align 8
  call void @_ZNSaIiEC2ERKS_(%"class.std::allocator"* noundef nonnull align 1 dereferenceable(1) %6, %"class.std::allocator"* noundef nonnull align 1 dereferenceable(1) %7) #3
  %8 = bitcast %"struct.std::_Vector_base<int, std::allocator<int>>::_Vector_impl"* %5 to %"struct.std::_Vector_base<int, std::allocator<int>>::_Vector_impl_data"*
  call void @_ZNSt12_Vector_baseIiSaIiEE17_Vector_impl_dataC2Ev(%"struct.std::_Vector_base<int, std::allocator<int>>::_Vector_impl_data"* noundef nonnull align 8 dereferenceable(24) %8) #3
  ret void
}

; Function Attrs: mustprogress noinline optnone uwtable
define linkonce_odr dso_local void @_ZNSt12_Vector_baseIiSaIiEE17_M_create_storageEm(%"struct.std::_Vector_base"* noundef nonnull align 8 dereferenceable(24) %0, i64 noundef %1) #5 comdat align 2 {
  %3 = alloca %"struct.std::_Vector_base"*, align 8
  %4 = alloca i64, align 8
  store %"struct.std::_Vector_base"* %0, %"struct.std::_Vector_base"** %3, align 8
  store i64 %1, i64* %4, align 8
  %5 = load %"struct.std::_Vector_base"*, %"struct.std::_Vector_base"** %3, align 8
  %6 = load i64, i64* %4, align 8
  %7 = call noundef i32* @_ZNSt12_Vector_baseIiSaIiEE11_M_allocateEm(%"struct.std::_Vector_base"* noundef nonnull align 8 dereferenceable(24) %5, i64 noundef %6)
  %8 = getelementptr inbounds %"struct.std::_Vector_base", %"struct.std::_Vector_base"* %5, i32 0, i32 0
  %9 = bitcast %"struct.std::_Vector_base<int, std::allocator<int>>::_Vector_impl"* %8 to %"struct.std::_Vector_base<int, std::allocator<int>>::_Vector_impl_data"*
  %10 = getelementptr inbounds %"struct.std::_Vector_base<int, std::allocator<int>>::_Vector_impl_data", %"struct.std::_Vector_base<int, std::allocator<int>>::_Vector_impl_data"* %9, i32 0, i32 0
  store i32* %7, i32** %10, align 8
  %11 = getelementptr inbounds %"struct.std::_Vector_base", %"struct.std::_Vector_base"* %5, i32 0, i32 0
  %12 = bitcast %"struct.std::_Vector_base<int, std::allocator<int>>::_Vector_impl"* %11 to %"struct.std::_Vector_base<int, std::allocator<int>>::_Vector_impl_data"*
  %13 = getelementptr inbounds %"struct.std::_Vector_base<int, std::allocator<int>>::_Vector_impl_data", %"struct.std::_Vector_base<int, std::allocator<int>>::_Vector_impl_data"* %12, i32 0, i32 0
  %14 = load i32*, i32** %13, align 8
  %15 = getelementptr inbounds %"struct.std::_Vector_base", %"struct.std::_Vector_base"* %5, i32 0, i32 0
  %16 = bitcast %"struct.std::_Vector_base<int, std::allocator<int>>::_Vector_impl"* %15 to %"struct.std::_Vector_base<int, std::allocator<int>>::_Vector_impl_data"*
  %17 = getelementptr inbounds %"struct.std::_Vector_base<int, std::allocator<int>>::_Vector_impl_data", %"struct.std::_Vector_base<int, std::allocator<int>>::_Vector_impl_data"* %16, i32 0, i32 1
  store i32* %14, i32** %17, align 8
  %18 = getelementptr inbounds %"struct.std::_Vector_base", %"struct.std::_Vector_base"* %5, i32 0, i32 0
  %19 = bitcast %"struct.std::_Vector_base<int, std::allocator<int>>::_Vector_impl"* %18 to %"struct.std::_Vector_base<int, std::allocator<int>>::_Vector_impl_data"*
  %20 = getelementptr inbounds %"struct.std::_Vector_base<int, std::allocator<int>>::_Vector_impl_data", %"struct.std::_Vector_base<int, std::allocator<int>>::_Vector_impl_data"* %19, i32 0, i32 0
  %21 = load i32*, i32** %20, align 8
  %22 = load i64, i64* %4, align 8
  %23 = getelementptr inbounds i32, i32* %21, i64 %22
  %24 = getelementptr inbounds %"struct.std::_Vector_base", %"struct.std::_Vector_base"* %5, i32 0, i32 0
  %25 = bitcast %"struct.std::_Vector_base<int, std::allocator<int>>::_Vector_impl"* %24 to %"struct.std::_Vector_base<int, std::allocator<int>>::_Vector_impl_data"*
  %26 = getelementptr inbounds %"struct.std::_Vector_base<int, std::allocator<int>>::_Vector_impl_data", %"struct.std::_Vector_base<int, std::allocator<int>>::_Vector_impl_data"* %25, i32 0, i32 2
  store i32* %23, i32** %26, align 8
  ret void
}

; Function Attrs: noinline nounwind optnone uwtable
define linkonce_odr dso_local void @_ZNSt12_Vector_baseIiSaIiEE12_Vector_implD2Ev(%"struct.std::_Vector_base<int, std::allocator<int>>::_Vector_impl"* noundef nonnull align 8 dereferenceable(24) %0) unnamed_addr #7 comdat align 2 {
  %2 = alloca %"struct.std::_Vector_base<int, std::allocator<int>>::_Vector_impl"*, align 8
  store %"struct.std::_Vector_base<int, std::allocator<int>>::_Vector_impl"* %0, %"struct.std::_Vector_base<int, std::allocator<int>>::_Vector_impl"** %2, align 8
  %3 = load %"struct.std::_Vector_base<int, std::allocator<int>>::_Vector_impl"*, %"struct.std::_Vector_base<int, std::allocator<int>>::_Vector_impl"** %2, align 8
  %4 = bitcast %"struct.std::_Vector_base<int, std::allocator<int>>::_Vector_impl"* %3 to %"class.std::allocator"*
  call void @_ZNSaIiED2Ev(%"class.std::allocator"* noundef nonnull align 1 dereferenceable(1) %4) #3
  ret void
}

; Function Attrs: mustprogress noinline optnone uwtable
define linkonce_odr dso_local noundef i32* @_ZNSt12_Vector_baseIiSaIiEE11_M_allocateEm(%"struct.std::_Vector_base"* noundef nonnull align 8 dereferenceable(24) %0, i64 noundef %1) #5 comdat align 2 {
  %3 = alloca %"struct.std::_Vector_base"*, align 8
  %4 = alloca i64, align 8
  store %"struct.std::_Vector_base"* %0, %"struct.std::_Vector_base"** %3, align 8
  store i64 %1, i64* %4, align 8
  %5 = load %"struct.std::_Vector_base"*, %"struct.std::_Vector_base"** %3, align 8
  %6 = load i64, i64* %4, align 8
  %7 = icmp ne i64 %6, 0
  br i1 %7, label %8, label %13

8:                                                ; preds = %2
  %9 = getelementptr inbounds %"struct.std::_Vector_base", %"struct.std::_Vector_base"* %5, i32 0, i32 0
  %10 = bitcast %"struct.std::_Vector_base<int, std::allocator<int>>::_Vector_impl"* %9 to %"class.std::allocator"*
  %11 = load i64, i64* %4, align 8
  %12 = call noundef i32* @_ZNSt16allocator_traitsISaIiEE8allocateERS0_m(%"class.std::allocator"* noundef nonnull align 1 dereferenceable(1) %10, i64 noundef %11)
  br label %14

13:                                               ; preds = %2
  br label %14

14:                                               ; preds = %13, %8
  %15 = phi i32* [ %12, %8 ], [ null, %13 ]
  ret i32* %15
}

; Function Attrs: mustprogress noinline optnone uwtable
define linkonce_odr dso_local noundef i32* @_ZNSt16allocator_traitsISaIiEE8allocateERS0_m(%"class.std::allocator"* noundef nonnull align 1 dereferenceable(1) %0, i64 noundef %1) #5 comdat align 2 {
  %3 = alloca %"class.std::allocator"*, align 8
  %4 = alloca i64, align 8
  store %"class.std::allocator"* %0, %"class.std::allocator"** %3, align 8
  store i64 %1, i64* %4, align 8
  %5 = load %"class.std::allocator"*, %"class.std::allocator"** %3, align 8
  %6 = bitcast %"class.std::allocator"* %5 to %"class.__gnu_cxx::new_allocator"*
  %7 = load i64, i64* %4, align 8
  %8 = call noundef i32* @_ZN9__gnu_cxx13new_allocatorIiE8allocateEmPKv(%"class.__gnu_cxx::new_allocator"* noundef nonnull align 1 dereferenceable(1) %6, i64 noundef %7, i8* noundef null)
  ret i32* %8
}

; Function Attrs: mustprogress noinline optnone uwtable
define linkonce_odr dso_local noundef i32* @_ZN9__gnu_cxx13new_allocatorIiE8allocateEmPKv(%"class.__gnu_cxx::new_allocator"* noundef nonnull align 1 dereferenceable(1) %0, i64 noundef %1, i8* noundef %2) #5 comdat align 2 {
  %4 = alloca %"class.__gnu_cxx::new_allocator"*, align 8
  %5 = alloca i64, align 8
  %6 = alloca i8*, align 8
  store %"class.__gnu_cxx::new_allocator"* %0, %"class.__gnu_cxx::new_allocator"** %4, align 8
  store i64 %1, i64* %5, align 8
  store i8* %2, i8** %6, align 8
  %7 = load %"class.__gnu_cxx::new_allocator"*, %"class.__gnu_cxx::new_allocator"** %4, align 8
  %8 = load i64, i64* %5, align 8
  %9 = call noundef i64 @_ZNK9__gnu_cxx13new_allocatorIiE11_M_max_sizeEv(%"class.__gnu_cxx::new_allocator"* noundef nonnull align 1 dereferenceable(1) %7) #3
  %10 = icmp ugt i64 %8, %9
  br i1 %10, label %11, label %16

11:                                               ; preds = %3
  %12 = load i64, i64* %5, align 8
  %13 = icmp ugt i64 %12, 4611686018427387903
  br i1 %13, label %14, label %15

14:                                               ; preds = %11
  call void @_ZSt28__throw_bad_array_new_lengthv() #21
  unreachable

15:                                               ; preds = %11
  call void @_ZSt17__throw_bad_allocv() #21
  unreachable

16:                                               ; preds = %3
  %17 = load i64, i64* %5, align 8
  %18 = mul i64 %17, 4
  %19 = call noalias noundef nonnull i8* @_Znwm(i64 noundef %18) #22
  %20 = bitcast i8* %19 to i32*
  ret i32* %20
}

; Function Attrs: noreturn
declare void @_ZSt28__throw_bad_array_new_lengthv() #10

; Function Attrs: noreturn
declare void @_ZSt17__throw_bad_allocv() #10

; Function Attrs: nobuiltin allocsize(0)
declare noundef nonnull i8* @_Znwm(i64 noundef) #12

; Function Attrs: noinline nounwind optnone uwtable
define linkonce_odr dso_local void @_ZN9__gnu_cxx13new_allocatorIiED2Ev(%"class.__gnu_cxx::new_allocator"* noundef nonnull align 1 dereferenceable(1) %0) unnamed_addr #7 comdat align 2 {
  %2 = alloca %"class.__gnu_cxx::new_allocator"*, align 8
  store %"class.__gnu_cxx::new_allocator"* %0, %"class.__gnu_cxx::new_allocator"** %2, align 8
  %3 = load %"class.__gnu_cxx::new_allocator"*, %"class.__gnu_cxx::new_allocator"** %2, align 8
  ret void
}

; Function Attrs: mustprogress noinline optnone uwtable
define linkonce_odr dso_local noundef i32* @_ZSt27__uninitialized_default_n_aIPimiET_S1_T0_RSaIT1_E(i32* noundef %0, i64 noundef %1, %"class.std::allocator"* noundef nonnull align 1 dereferenceable(1) %2) #5 comdat {
  %4 = alloca i32*, align 8
  %5 = alloca i64, align 8
  %6 = alloca %"class.std::allocator"*, align 8
  store i32* %0, i32** %4, align 8
  store i64 %1, i64* %5, align 8
  store %"class.std::allocator"* %2, %"class.std::allocator"** %6, align 8
  %7 = load i32*, i32** %4, align 8
  %8 = load i64, i64* %5, align 8
  %9 = call noundef i32* @_ZSt25__uninitialized_default_nIPimET_S1_T0_(i32* noundef %7, i64 noundef %8)
  ret i32* %9
}

; Function Attrs: mustprogress noinline nounwind optnone uwtable
define linkonce_odr dso_local noundef nonnull align 1 dereferenceable(1) %"class.std::allocator"* @_ZNSt12_Vector_baseIiSaIiEE19_M_get_Tp_allocatorEv(%"struct.std::_Vector_base"* noundef nonnull align 8 dereferenceable(24) %0) #9 comdat align 2 {
  %2 = alloca %"struct.std::_Vector_base"*, align 8
  store %"struct.std::_Vector_base"* %0, %"struct.std::_Vector_base"** %2, align 8
  %3 = load %"struct.std::_Vector_base"*, %"struct.std::_Vector_base"** %2, align 8
  %4 = getelementptr inbounds %"struct.std::_Vector_base", %"struct.std::_Vector_base"* %3, i32 0, i32 0
  %5 = bitcast %"struct.std::_Vector_base<int, std::allocator<int>>::_Vector_impl"* %4 to %"class.std::allocator"*
  ret %"class.std::allocator"* %5
}

; Function Attrs: mustprogress noinline optnone uwtable
define linkonce_odr dso_local noundef i32* @_ZSt25__uninitialized_default_nIPimET_S1_T0_(i32* noundef %0, i64 noundef %1) #5 comdat {
  %3 = alloca i32*, align 8
  %4 = alloca i64, align 8
  %5 = alloca i8, align 1
  store i32* %0, i32** %3, align 8
  store i64 %1, i64* %4, align 8
  store i8 1, i8* %5, align 1
  %6 = load i32*, i32** %3, align 8
  %7 = load i64, i64* %4, align 8
  %8 = call noundef i32* @_ZNSt27__uninitialized_default_n_1ILb1EE18__uninit_default_nIPimEET_S3_T0_(i32* noundef %6, i64 noundef %7)
  ret i32* %8
}

; Function Attrs: mustprogress noinline optnone uwtable
define linkonce_odr dso_local noundef i32* @_ZNSt27__uninitialized_default_n_1ILb1EE18__uninit_default_nIPimEET_S3_T0_(i32* noundef %0, i64 noundef %1) #5 comdat align 2 {
  %3 = alloca i32*, align 8
  %4 = alloca i64, align 8
  %5 = alloca i32*, align 8
  store i32* %0, i32** %3, align 8
  store i64 %1, i64* %4, align 8
  %6 = load i64, i64* %4, align 8
  %7 = icmp ugt i64 %6, 0
  br i1 %7, label %8, label %19

8:                                                ; preds = %2
  %9 = load i32*, i32** %3, align 8
  %10 = call noundef i32* @_ZSt11__addressofIiEPT_RS0_(i32* noundef nonnull align 4 dereferenceable(4) %9) #3
  store i32* %10, i32** %5, align 8
  %11 = load i32*, i32** %5, align 8
  call void @_ZSt10_ConstructIiJEEvPT_DpOT0_(i32* noundef %11)
  %12 = load i32*, i32** %3, align 8
  %13 = getelementptr inbounds i32, i32* %12, i32 1
  store i32* %13, i32** %3, align 8
  %14 = load i32*, i32** %3, align 8
  %15 = load i64, i64* %4, align 8
  %16 = sub i64 %15, 1
  %17 = load i32*, i32** %5, align 8
  %18 = call noundef i32* @_ZSt6fill_nIPimiET_S1_T0_RKT1_(i32* noundef %14, i64 noundef %16, i32* noundef nonnull align 4 dereferenceable(4) %17)
  store i32* %18, i32** %3, align 8
  br label %19

19:                                               ; preds = %8, %2
  %20 = load i32*, i32** %3, align 8
  ret i32* %20
}

; Function Attrs: mustprogress noinline nounwind optnone uwtable
define linkonce_odr dso_local noundef i32* @_ZSt11__addressofIiEPT_RS0_(i32* noundef nonnull align 4 dereferenceable(4) %0) #9 comdat {
  %2 = alloca i32*, align 8
  store i32* %0, i32** %2, align 8
  %3 = load i32*, i32** %2, align 8
  ret i32* %3
}

; Function Attrs: mustprogress noinline nounwind optnone uwtable
define linkonce_odr dso_local void @_ZSt10_ConstructIiJEEvPT_DpOT0_(i32* noundef %0) #9 comdat {
  %2 = alloca i32*, align 8
  store i32* %0, i32** %2, align 8
  %3 = load i32*, i32** %2, align 8
  %4 = bitcast i32* %3 to i8*
  %5 = bitcast i8* %4 to i32*
  store i32 0, i32* %5, align 4
  ret void
}

; Function Attrs: mustprogress noinline optnone uwtable
define linkonce_odr dso_local noundef i32* @_ZSt6fill_nIPimiET_S1_T0_RKT1_(i32* noundef %0, i64 noundef %1, i32* noundef nonnull align 4 dereferenceable(4) %2) #5 comdat {
  %4 = alloca i32*, align 8
  %5 = alloca i64, align 8
  %6 = alloca i32*, align 8
  %7 = alloca %"struct.std::random_access_iterator_tag", align 1
  %8 = alloca %"struct.std::random_access_iterator_tag", align 1
  store i32* %0, i32** %4, align 8
  store i64 %1, i64* %5, align 8
  store i32* %2, i32** %6, align 8
  %9 = load i32*, i32** %4, align 8
  %10 = load i64, i64* %5, align 8
  %11 = call noundef i64 @_ZSt17__size_to_integerm(i64 noundef %10)
  %12 = load i32*, i32** %6, align 8
  call void @_ZSt19__iterator_categoryIPiENSt15iterator_traitsIT_E17iterator_categoryERKS2_(i32** noundef nonnull align 8 dereferenceable(8) %4)
  %13 = call noundef i32* @_ZSt10__fill_n_aIPimiET_S1_T0_RKT1_St26random_access_iterator_tag(i32* noundef %9, i64 noundef %11, i32* noundef nonnull align 4 dereferenceable(4) %12)
  ret i32* %13
}

; Function Attrs: mustprogress noinline optnone uwtable
define linkonce_odr dso_local noundef i32* @_ZSt10__fill_n_aIPimiET_S1_T0_RKT1_St26random_access_iterator_tag(i32* noundef %0, i64 noundef %1, i32* noundef nonnull align 4 dereferenceable(4) %2) #5 comdat {
  %4 = alloca i32*, align 8
  %5 = alloca %"struct.std::random_access_iterator_tag", align 1
  %6 = alloca i32*, align 8
  %7 = alloca i64, align 8
  %8 = alloca i32*, align 8
  store i32* %0, i32** %6, align 8
  store i64 %1, i64* %7, align 8
  store i32* %2, i32** %8, align 8
  %9 = load i64, i64* %7, align 8
  %10 = icmp ule i64 %9, 0
  br i1 %10, label %11, label %13

11:                                               ; preds = %3
  %12 = load i32*, i32** %6, align 8
  store i32* %12, i32** %4, align 8
  br label %22

13:                                               ; preds = %3
  %14 = load i32*, i32** %6, align 8
  %15 = load i32*, i32** %6, align 8
  %16 = load i64, i64* %7, align 8
  %17 = getelementptr inbounds i32, i32* %15, i64 %16
  %18 = load i32*, i32** %8, align 8
  call void @_ZSt8__fill_aIPiiEvT_S1_RKT0_(i32* noundef %14, i32* noundef %17, i32* noundef nonnull align 4 dereferenceable(4) %18)
  %19 = load i32*, i32** %6, align 8
  %20 = load i64, i64* %7, align 8
  %21 = getelementptr inbounds i32, i32* %19, i64 %20
  store i32* %21, i32** %4, align 8
  br label %22

22:                                               ; preds = %13, %11
  %23 = load i32*, i32** %4, align 8
  ret i32* %23
}

; Function Attrs: mustprogress noinline nounwind optnone uwtable
define linkonce_odr dso_local noundef i64 @_ZSt17__size_to_integerm(i64 noundef %0) #9 comdat {
  %2 = alloca i64, align 8
  store i64 %0, i64* %2, align 8
  %3 = load i64, i64* %2, align 8
  ret i64 %3
}

; Function Attrs: mustprogress noinline nounwind optnone uwtable
define linkonce_odr dso_local void @_ZSt19__iterator_categoryIPiENSt15iterator_traitsIT_E17iterator_categoryERKS2_(i32** noundef nonnull align 8 dereferenceable(8) %0) #9 comdat {
  %2 = alloca i32**, align 8
  store i32** %0, i32*** %2, align 8
  ret void
}

; Function Attrs: mustprogress noinline optnone uwtable
define linkonce_odr dso_local void @_ZSt8__fill_aIPiiEvT_S1_RKT0_(i32* noundef %0, i32* noundef %1, i32* noundef nonnull align 4 dereferenceable(4) %2) #5 comdat {
  %4 = alloca i32*, align 8
  %5 = alloca i32*, align 8
  %6 = alloca i32*, align 8
  store i32* %0, i32** %4, align 8
  store i32* %1, i32** %5, align 8
  store i32* %2, i32** %6, align 8
  %7 = load i32*, i32** %4, align 8
  %8 = load i32*, i32** %5, align 8
  %9 = load i32*, i32** %6, align 8
  call void @_ZSt9__fill_a1IPiiEN9__gnu_cxx11__enable_ifIXsr11__is_scalarIT0_EE7__valueEvE6__typeET_S6_RKS3_(i32* noundef %7, i32* noundef %8, i32* noundef nonnull align 4 dereferenceable(4) %9)
  ret void
}

; Function Attrs: mustprogress noinline nounwind optnone uwtable
define linkonce_odr dso_local void @_ZSt9__fill_a1IPiiEN9__gnu_cxx11__enable_ifIXsr11__is_scalarIT0_EE7__valueEvE6__typeET_S6_RKS3_(i32* noundef %0, i32* noundef %1, i32* noundef nonnull align 4 dereferenceable(4) %2) #9 comdat {
  %4 = alloca i32*, align 8
  %5 = alloca i32*, align 8
  %6 = alloca i32*, align 8
  %7 = alloca i32, align 4
  store i32* %0, i32** %4, align 8
  store i32* %1, i32** %5, align 8
  store i32* %2, i32** %6, align 8
  %8 = load i32*, i32** %6, align 8
  %9 = load i32, i32* %8, align 4
  store i32 %9, i32* %7, align 4
  br label %10

10:                                               ; preds = %17, %3
  %11 = load i32*, i32** %4, align 8
  %12 = load i32*, i32** %5, align 8
  %13 = icmp ne i32* %11, %12
  br i1 %13, label %14, label %20

14:                                               ; preds = %10
  %15 = load i32, i32* %7, align 4
  %16 = load i32*, i32** %4, align 8
  store i32 %15, i32* %16, align 4
  br label %17

17:                                               ; preds = %14
  %18 = load i32*, i32** %4, align 8
  %19 = getelementptr inbounds i32, i32* %18, i32 1
  store i32* %19, i32** %4, align 8
  br label %10, !llvm.loop !8

20:                                               ; preds = %10
  ret void
}

; Function Attrs: mustprogress noinline optnone uwtable
define linkonce_odr dso_local void @_ZNSt12_Vector_baseIiSaIiEE13_M_deallocateEPim(%"struct.std::_Vector_base"* noundef nonnull align 8 dereferenceable(24) %0, i32* noundef %1, i64 noundef %2) #5 comdat align 2 {
  %4 = alloca %"struct.std::_Vector_base"*, align 8
  %5 = alloca i32*, align 8
  %6 = alloca i64, align 8
  store %"struct.std::_Vector_base"* %0, %"struct.std::_Vector_base"** %4, align 8
  store i32* %1, i32** %5, align 8
  store i64 %2, i64* %6, align 8
  %7 = load %"struct.std::_Vector_base"*, %"struct.std::_Vector_base"** %4, align 8
  %8 = load i32*, i32** %5, align 8
  %9 = icmp ne i32* %8, null
  br i1 %9, label %10, label %15

10:                                               ; preds = %3
  %11 = getelementptr inbounds %"struct.std::_Vector_base", %"struct.std::_Vector_base"* %7, i32 0, i32 0
  %12 = bitcast %"struct.std::_Vector_base<int, std::allocator<int>>::_Vector_impl"* %11 to %"class.std::allocator"*
  %13 = load i32*, i32** %5, align 8
  %14 = load i64, i64* %6, align 8
  call void @_ZNSt16allocator_traitsISaIiEE10deallocateERS0_Pim(%"class.std::allocator"* noundef nonnull align 1 dereferenceable(1) %12, i32* noundef %13, i64 noundef %14)
  br label %15

15:                                               ; preds = %10, %3
  ret void
}

; Function Attrs: mustprogress noinline optnone uwtable
define linkonce_odr dso_local void @_ZNSt16allocator_traitsISaIiEE10deallocateERS0_Pim(%"class.std::allocator"* noundef nonnull align 1 dereferenceable(1) %0, i32* noundef %1, i64 noundef %2) #5 comdat align 2 {
  %4 = alloca %"class.std::allocator"*, align 8
  %5 = alloca i32*, align 8
  %6 = alloca i64, align 8
  store %"class.std::allocator"* %0, %"class.std::allocator"** %4, align 8
  store i32* %1, i32** %5, align 8
  store i64 %2, i64* %6, align 8
  %7 = load %"class.std::allocator"*, %"class.std::allocator"** %4, align 8
  %8 = bitcast %"class.std::allocator"* %7 to %"class.__gnu_cxx::new_allocator"*
  %9 = load i32*, i32** %5, align 8
  %10 = load i64, i64* %6, align 8
  call void @_ZN9__gnu_cxx13new_allocatorIiE10deallocateEPim(%"class.__gnu_cxx::new_allocator"* noundef nonnull align 1 dereferenceable(1) %8, i32* noundef %9, i64 noundef %10)
  ret void
}

; Function Attrs: mustprogress noinline nounwind optnone uwtable
define linkonce_odr dso_local void @_ZN9__gnu_cxx13new_allocatorIiE10deallocateEPim(%"class.__gnu_cxx::new_allocator"* noundef nonnull align 1 dereferenceable(1) %0, i32* noundef %1, i64 noundef %2) #9 comdat align 2 {
  %4 = alloca %"class.__gnu_cxx::new_allocator"*, align 8
  %5 = alloca i32*, align 8
  %6 = alloca i64, align 8
  store %"class.__gnu_cxx::new_allocator"* %0, %"class.__gnu_cxx::new_allocator"** %4, align 8
  store i32* %1, i32** %5, align 8
  store i64 %2, i64* %6, align 8
  %7 = load %"class.__gnu_cxx::new_allocator"*, %"class.__gnu_cxx::new_allocator"** %4, align 8
  %8 = load i32*, i32** %5, align 8
  %9 = bitcast i32* %8 to i8*
  call void @_ZdlPv(i8* noundef %9) #3
  ret void
}

; Function Attrs: nobuiltin nounwind
declare void @_ZdlPv(i8* noundef) #13

; Function Attrs: mustprogress noinline nounwind optnone uwtable
define linkonce_odr dso_local noundef i64 @_ZNKSt6vectorIiSaIiEE4sizeEv(%"class.std::vector"* noundef nonnull align 8 dereferenceable(24) %0) #9 comdat align 2 {
  %2 = alloca %"class.std::vector"*, align 8
  store %"class.std::vector"* %0, %"class.std::vector"** %2, align 8
  %3 = load %"class.std::vector"*, %"class.std::vector"** %2, align 8
  %4 = bitcast %"class.std::vector"* %3 to %"struct.std::_Vector_base"*
  %5 = getelementptr inbounds %"struct.std::_Vector_base", %"struct.std::_Vector_base"* %4, i32 0, i32 0
  %6 = bitcast %"struct.std::_Vector_base<int, std::allocator<int>>::_Vector_impl"* %5 to %"struct.std::_Vector_base<int, std::allocator<int>>::_Vector_impl_data"*
  %7 = getelementptr inbounds %"struct.std::_Vector_base<int, std::allocator<int>>::_Vector_impl_data", %"struct.std::_Vector_base<int, std::allocator<int>>::_Vector_impl_data"* %6, i32 0, i32 1
  %8 = load i32*, i32** %7, align 8
  %9 = bitcast %"class.std::vector"* %3 to %"struct.std::_Vector_base"*
  %10 = getelementptr inbounds %"struct.std::_Vector_base", %"struct.std::_Vector_base"* %9, i32 0, i32 0
  %11 = bitcast %"struct.std::_Vector_base<int, std::allocator<int>>::_Vector_impl"* %10 to %"struct.std::_Vector_base<int, std::allocator<int>>::_Vector_impl_data"*
  %12 = getelementptr inbounds %"struct.std::_Vector_base<int, std::allocator<int>>::_Vector_impl_data", %"struct.std::_Vector_base<int, std::allocator<int>>::_Vector_impl_data"* %11, i32 0, i32 0
  %13 = load i32*, i32** %12, align 8
  %14 = ptrtoint i32* %8 to i64
  %15 = ptrtoint i32* %13 to i64
  %16 = sub i64 %14, %15
  %17 = sdiv exact i64 %16, 4
  ret i64 %17
}

; Function Attrs: mustprogress noinline optnone uwtable
define linkonce_odr dso_local void @_ZNKSt8functionIFvRKSt6vectorIS0_IiSaIiEESaIS2_EEEEclES6_(%"class.std::function"* noundef nonnull align 8 dereferenceable(32) %0, %"class.std::vector.0"* noundef nonnull align 8 dereferenceable(24) %1) #5 comdat align 2 {
  %3 = alloca %"class.std::function"*, align 8
  %4 = alloca %"class.std::vector.0"*, align 8
  store %"class.std::function"* %0, %"class.std::function"** %3, align 8
  store %"class.std::vector.0"* %1, %"class.std::vector.0"** %4, align 8
  %5 = load %"class.std::function"*, %"class.std::function"** %3, align 8
  %6 = bitcast %"class.std::function"* %5 to %"class.std::_Function_base"*
  %7 = call noundef zeroext i1 @_ZNKSt14_Function_base8_M_emptyEv(%"class.std::_Function_base"* noundef nonnull align 8 dereferenceable(24) %6)
  br i1 %7, label %8, label %9

8:                                                ; preds = %2
  call void @_ZSt25__throw_bad_function_callv() #21
  unreachable

9:                                                ; preds = %2
  %10 = getelementptr inbounds %"class.std::function", %"class.std::function"* %5, i32 0, i32 1
  %11 = load void (%"union.std::_Any_data"*, %"class.std::vector.0"*)*, void (%"union.std::_Any_data"*, %"class.std::vector.0"*)** %10, align 8
  %12 = bitcast %"class.std::function"* %5 to %"class.std::_Function_base"*
  %13 = getelementptr inbounds %"class.std::_Function_base", %"class.std::_Function_base"* %12, i32 0, i32 0
  %14 = load %"class.std::vector.0"*, %"class.std::vector.0"** %4, align 8
  %15 = call noundef nonnull align 8 dereferenceable(24) %"class.std::vector.0"* @_ZSt7forwardIRKSt6vectorIS0_IiSaIiEESaIS2_EEEOT_RNSt16remove_referenceIS7_E4typeE(%"class.std::vector.0"* noundef nonnull align 8 dereferenceable(24) %14) #3
  call void %11(%"union.std::_Any_data"* noundef nonnull align 8 dereferenceable(16) %13, %"class.std::vector.0"* noundef nonnull align 8 dereferenceable(24) %15)
  ret void
}

; Function Attrs: noinline optnone uwtable
define linkonce_odr dso_local void @_ZNSt6vectorIiSaIiEEC2ERKS1_(%"class.std::vector"* noundef nonnull align 8 dereferenceable(24) %0, %"class.std::vector"* noundef nonnull align 8 dereferenceable(24) %1) unnamed_addr #8 comdat align 2 personality i8* bitcast (i32 (...)* @__gxx_personality_v0 to i8*) {
  %3 = alloca %"class.std::vector"*, align 8
  %4 = alloca %"class.std::vector"*, align 8
  %5 = alloca %"class.std::allocator", align 1
  %6 = alloca i8*, align 8
  %7 = alloca i32, align 4
  %8 = alloca %"class.__gnu_cxx::__normal_iterator", align 8
  %9 = alloca %"class.__gnu_cxx::__normal_iterator", align 8
  store %"class.std::vector"* %0, %"class.std::vector"** %3, align 8
  store %"class.std::vector"* %1, %"class.std::vector"** %4, align 8
  %10 = load %"class.std::vector"*, %"class.std::vector"** %3, align 8
  %11 = bitcast %"class.std::vector"* %10 to %"struct.std::_Vector_base"*
  %12 = load %"class.std::vector"*, %"class.std::vector"** %4, align 8
  %13 = call noundef i64 @_ZNKSt6vectorIiSaIiEE4sizeEv(%"class.std::vector"* noundef nonnull align 8 dereferenceable(24) %12) #3
  %14 = load %"class.std::vector"*, %"class.std::vector"** %4, align 8
  %15 = bitcast %"class.std::vector"* %14 to %"struct.std::_Vector_base"*
  %16 = call noundef nonnull align 1 dereferenceable(1) %"class.std::allocator"* @_ZNKSt12_Vector_baseIiSaIiEE19_M_get_Tp_allocatorEv(%"struct.std::_Vector_base"* noundef nonnull align 8 dereferenceable(24) %15) #3
  call void @_ZN9__gnu_cxx14__alloc_traitsISaIiEiE17_S_select_on_copyERKS1_(%"class.std::allocator"* sret(%"class.std::allocator") align 1 %5, %"class.std::allocator"* noundef nonnull align 1 dereferenceable(1) %16)
  invoke void @_ZNSt12_Vector_baseIiSaIiEEC2EmRKS0_(%"struct.std::_Vector_base"* noundef nonnull align 8 dereferenceable(24) %11, i64 noundef %13, %"class.std::allocator"* noundef nonnull align 1 dereferenceable(1) %5)
          to label %17 unwind label %41

17:                                               ; preds = %2
  call void @_ZNSaIiED2Ev(%"class.std::allocator"* noundef nonnull align 1 dereferenceable(1) %5) #3
  %18 = load %"class.std::vector"*, %"class.std::vector"** %4, align 8
  %19 = call i32* @_ZNKSt6vectorIiSaIiEE5beginEv(%"class.std::vector"* noundef nonnull align 8 dereferenceable(24) %18) #3
  %20 = getelementptr inbounds %"class.__gnu_cxx::__normal_iterator", %"class.__gnu_cxx::__normal_iterator"* %8, i32 0, i32 0
  store i32* %19, i32** %20, align 8
  %21 = load %"class.std::vector"*, %"class.std::vector"** %4, align 8
  %22 = call i32* @_ZNKSt6vectorIiSaIiEE3endEv(%"class.std::vector"* noundef nonnull align 8 dereferenceable(24) %21) #3
  %23 = getelementptr inbounds %"class.__gnu_cxx::__normal_iterator", %"class.__gnu_cxx::__normal_iterator"* %9, i32 0, i32 0
  store i32* %22, i32** %23, align 8
  %24 = bitcast %"class.std::vector"* %10 to %"struct.std::_Vector_base"*
  %25 = getelementptr inbounds %"struct.std::_Vector_base", %"struct.std::_Vector_base"* %24, i32 0, i32 0
  %26 = bitcast %"struct.std::_Vector_base<int, std::allocator<int>>::_Vector_impl"* %25 to %"struct.std::_Vector_base<int, std::allocator<int>>::_Vector_impl_data"*
  %27 = getelementptr inbounds %"struct.std::_Vector_base<int, std::allocator<int>>::_Vector_impl_data", %"struct.std::_Vector_base<int, std::allocator<int>>::_Vector_impl_data"* %26, i32 0, i32 0
  %28 = load i32*, i32** %27, align 8
  %29 = bitcast %"class.std::vector"* %10 to %"struct.std::_Vector_base"*
  %30 = call noundef nonnull align 1 dereferenceable(1) %"class.std::allocator"* @_ZNSt12_Vector_baseIiSaIiEE19_M_get_Tp_allocatorEv(%"struct.std::_Vector_base"* noundef nonnull align 8 dereferenceable(24) %29) #3
  %31 = getelementptr inbounds %"class.__gnu_cxx::__normal_iterator", %"class.__gnu_cxx::__normal_iterator"* %8, i32 0, i32 0
  %32 = load i32*, i32** %31, align 8
  %33 = getelementptr inbounds %"class.__gnu_cxx::__normal_iterator", %"class.__gnu_cxx::__normal_iterator"* %9, i32 0, i32 0
  %34 = load i32*, i32** %33, align 8
  %35 = invoke noundef i32* @_ZSt22__uninitialized_copy_aIN9__gnu_cxx17__normal_iteratorIPKiSt6vectorIiSaIiEEEEPiiET0_T_SA_S9_RSaIT1_E(i32* %32, i32* %34, i32* noundef %28, %"class.std::allocator"* noundef nonnull align 1 dereferenceable(1) %30)
          to label %36 unwind label %45

36:                                               ; preds = %17
  %37 = bitcast %"class.std::vector"* %10 to %"struct.std::_Vector_base"*
  %38 = getelementptr inbounds %"struct.std::_Vector_base", %"struct.std::_Vector_base"* %37, i32 0, i32 0
  %39 = bitcast %"struct.std::_Vector_base<int, std::allocator<int>>::_Vector_impl"* %38 to %"struct.std::_Vector_base<int, std::allocator<int>>::_Vector_impl_data"*
  %40 = getelementptr inbounds %"struct.std::_Vector_base<int, std::allocator<int>>::_Vector_impl_data", %"struct.std::_Vector_base<int, std::allocator<int>>::_Vector_impl_data"* %39, i32 0, i32 1
  store i32* %35, i32** %40, align 8
  ret void

41:                                               ; preds = %2
  %42 = landingpad { i8*, i32 }
          cleanup
  %43 = extractvalue { i8*, i32 } %42, 0
  store i8* %43, i8** %6, align 8
  %44 = extractvalue { i8*, i32 } %42, 1
  store i32 %44, i32* %7, align 4
  call void @_ZNSaIiED2Ev(%"class.std::allocator"* noundef nonnull align 1 dereferenceable(1) %5) #3
  br label %50

45:                                               ; preds = %17
  %46 = landingpad { i8*, i32 }
          cleanup
  %47 = extractvalue { i8*, i32 } %46, 0
  store i8* %47, i8** %6, align 8
  %48 = extractvalue { i8*, i32 } %46, 1
  store i32 %48, i32* %7, align 4
  %49 = bitcast %"class.std::vector"* %10 to %"struct.std::_Vector_base"*
  call void @_ZNSt12_Vector_baseIiSaIiEED2Ev(%"struct.std::_Vector_base"* noundef nonnull align 8 dereferenceable(24) %49) #3
  br label %50

50:                                               ; preds = %45, %41
  %51 = load i8*, i8** %6, align 8
  %52 = load i32, i32* %7, align 4
  %53 = insertvalue { i8*, i32 } undef, i8* %51, 0
  %54 = insertvalue { i8*, i32 } %53, i32 %52, 1
  resume { i8*, i32 } %54
}

; Function Attrs: noinline nounwind optnone uwtable
define linkonce_odr dso_local void @_ZNSaISt6vectorIiSaIiEEEC2Ev(%"class.std::allocator.2"* noundef nonnull align 1 dereferenceable(1) %0) unnamed_addr #7 comdat align 2 {
  %2 = alloca %"class.std::allocator.2"*, align 8
  store %"class.std::allocator.2"* %0, %"class.std::allocator.2"** %2, align 8
  %3 = load %"class.std::allocator.2"*, %"class.std::allocator.2"** %2, align 8
  %4 = bitcast %"class.std::allocator.2"* %3 to %"class.__gnu_cxx::new_allocator.3"*
  call void @_ZN9__gnu_cxx13new_allocatorISt6vectorIiSaIiEEEC2Ev(%"class.__gnu_cxx::new_allocator.3"* noundef nonnull align 1 dereferenceable(1) %4) #3
  ret void
}

; Function Attrs: noinline optnone uwtable
define linkonce_odr dso_local void @_ZNSt6vectorIS_IiSaIiEESaIS1_EEC2ESt16initializer_listIS1_ERKS2_(%"class.std::vector.0"* noundef nonnull align 8 dereferenceable(24) %0, %"class.std::vector"* %1, i64 %2, %"class.std::allocator.2"* noundef nonnull align 1 dereferenceable(1) %3) unnamed_addr #8 comdat align 2 personality i8* bitcast (i32 (...)* @__gxx_personality_v0 to i8*) {
  %5 = alloca %"class.std::initializer_list", align 8
  %6 = alloca %"class.std::vector.0"*, align 8
  %7 = alloca %"class.std::allocator.2"*, align 8
  %8 = alloca %"struct.std::forward_iterator_tag", align 1
  %9 = alloca %"struct.std::random_access_iterator_tag", align 1
  %10 = alloca i8*, align 8
  %11 = alloca i32, align 4
  %12 = bitcast %"class.std::initializer_list"* %5 to { %"class.std::vector"*, i64 }*
  %13 = getelementptr inbounds { %"class.std::vector"*, i64 }, { %"class.std::vector"*, i64 }* %12, i32 0, i32 0
  store %"class.std::vector"* %1, %"class.std::vector"** %13, align 8
  %14 = getelementptr inbounds { %"class.std::vector"*, i64 }, { %"class.std::vector"*, i64 }* %12, i32 0, i32 1
  store i64 %2, i64* %14, align 8
  store %"class.std::vector.0"* %0, %"class.std::vector.0"** %6, align 8
  store %"class.std::allocator.2"* %3, %"class.std::allocator.2"** %7, align 8
  %15 = load %"class.std::vector.0"*, %"class.std::vector.0"** %6, align 8
  %16 = bitcast %"class.std::vector.0"* %15 to %"struct.std::_Vector_base.1"*
  %17 = load %"class.std::allocator.2"*, %"class.std::allocator.2"** %7, align 8
  call void @_ZNSt12_Vector_baseISt6vectorIiSaIiEESaIS2_EEC2ERKS3_(%"struct.std::_Vector_base.1"* noundef nonnull align 8 dereferenceable(24) %16, %"class.std::allocator.2"* noundef nonnull align 1 dereferenceable(1) %17) #3
  %18 = call noundef %"class.std::vector"* @_ZNKSt16initializer_listISt6vectorIiSaIiEEE5beginEv(%"class.std::initializer_list"* noundef nonnull align 8 dereferenceable(16) %5) #3
  %19 = call noundef %"class.std::vector"* @_ZNKSt16initializer_listISt6vectorIiSaIiEEE3endEv(%"class.std::initializer_list"* noundef nonnull align 8 dereferenceable(16) %5) #3
  %20 = bitcast %"struct.std::random_access_iterator_tag"* %9 to %"struct.std::forward_iterator_tag"*
  invoke void @_ZNSt6vectorIS_IiSaIiEESaIS1_EE19_M_range_initializeIPKS1_EEvT_S7_St20forward_iterator_tag(%"class.std::vector.0"* noundef nonnull align 8 dereferenceable(24) %15, %"class.std::vector"* noundef %18, %"class.std::vector"* noundef %19)
          to label %21 unwind label %22

21:                                               ; preds = %4
  ret void

22:                                               ; preds = %4
  %23 = landingpad { i8*, i32 }
          cleanup
  %24 = extractvalue { i8*, i32 } %23, 0
  store i8* %24, i8** %10, align 8
  %25 = extractvalue { i8*, i32 } %23, 1
  store i32 %25, i32* %11, align 4
  %26 = bitcast %"class.std::vector.0"* %15 to %"struct.std::_Vector_base.1"*
  call void @_ZNSt12_Vector_baseISt6vectorIiSaIiEESaIS2_EED2Ev(%"struct.std::_Vector_base.1"* noundef nonnull align 8 dereferenceable(24) %26) #3
  br label %27

27:                                               ; preds = %22
  %28 = load i8*, i8** %10, align 8
  %29 = load i32, i32* %11, align 4
  %30 = insertvalue { i8*, i32 } undef, i8* %28, 0
  %31 = insertvalue { i8*, i32 } %30, i32 %29, 1
  resume { i8*, i32 } %31
}

; Function Attrs: noinline nounwind optnone uwtable
define linkonce_odr dso_local void @_ZNSt6vectorIS_IiSaIiEESaIS1_EED2Ev(%"class.std::vector.0"* noundef nonnull align 8 dereferenceable(24) %0) unnamed_addr #7 comdat align 2 personality i8* bitcast (i32 (...)* @__gxx_personality_v0 to i8*) {
  %2 = alloca %"class.std::vector.0"*, align 8
  %3 = alloca i8*, align 8
  %4 = alloca i32, align 4
  store %"class.std::vector.0"* %0, %"class.std::vector.0"** %2, align 8
  %5 = load %"class.std::vector.0"*, %"class.std::vector.0"** %2, align 8
  %6 = bitcast %"class.std::vector.0"* %5 to %"struct.std::_Vector_base.1"*
  %7 = getelementptr inbounds %"struct.std::_Vector_base.1", %"struct.std::_Vector_base.1"* %6, i32 0, i32 0
  %8 = bitcast %"struct.std::_Vector_base<std::vector<int>, std::allocator<std::vector<int>>>::_Vector_impl"* %7 to %"struct.std::_Vector_base<std::vector<int>, std::allocator<std::vector<int>>>::_Vector_impl_data"*
  %9 = getelementptr inbounds %"struct.std::_Vector_base<std::vector<int>, std::allocator<std::vector<int>>>::_Vector_impl_data", %"struct.std::_Vector_base<std::vector<int>, std::allocator<std::vector<int>>>::_Vector_impl_data"* %8, i32 0, i32 0
  %10 = load %"class.std::vector"*, %"class.std::vector"** %9, align 8
  %11 = bitcast %"class.std::vector.0"* %5 to %"struct.std::_Vector_base.1"*
  %12 = getelementptr inbounds %"struct.std::_Vector_base.1", %"struct.std::_Vector_base.1"* %11, i32 0, i32 0
  %13 = bitcast %"struct.std::_Vector_base<std::vector<int>, std::allocator<std::vector<int>>>::_Vector_impl"* %12 to %"struct.std::_Vector_base<std::vector<int>, std::allocator<std::vector<int>>>::_Vector_impl_data"*
  %14 = getelementptr inbounds %"struct.std::_Vector_base<std::vector<int>, std::allocator<std::vector<int>>>::_Vector_impl_data", %"struct.std::_Vector_base<std::vector<int>, std::allocator<std::vector<int>>>::_Vector_impl_data"* %13, i32 0, i32 1
  %15 = load %"class.std::vector"*, %"class.std::vector"** %14, align 8
  %16 = bitcast %"class.std::vector.0"* %5 to %"struct.std::_Vector_base.1"*
  %17 = call noundef nonnull align 1 dereferenceable(1) %"class.std::allocator.2"* @_ZNSt12_Vector_baseISt6vectorIiSaIiEESaIS2_EE19_M_get_Tp_allocatorEv(%"struct.std::_Vector_base.1"* noundef nonnull align 8 dereferenceable(24) %16) #3
  invoke void @_ZSt8_DestroyIPSt6vectorIiSaIiEES2_EvT_S4_RSaIT0_E(%"class.std::vector"* noundef %10, %"class.std::vector"* noundef %15, %"class.std::allocator.2"* noundef nonnull align 1 dereferenceable(1) %17)
          to label %18 unwind label %20

18:                                               ; preds = %1
  %19 = bitcast %"class.std::vector.0"* %5 to %"struct.std::_Vector_base.1"*
  call void @_ZNSt12_Vector_baseISt6vectorIiSaIiEESaIS2_EED2Ev(%"struct.std::_Vector_base.1"* noundef nonnull align 8 dereferenceable(24) %19) #3
  ret void

20:                                               ; preds = %1
  %21 = landingpad { i8*, i32 }
          catch i8* null
  %22 = extractvalue { i8*, i32 } %21, 0
  store i8* %22, i8** %3, align 8
  %23 = extractvalue { i8*, i32 } %21, 1
  store i32 %23, i32* %4, align 4
  %24 = bitcast %"class.std::vector.0"* %5 to %"struct.std::_Vector_base.1"*
  call void @_ZNSt12_Vector_baseISt6vectorIiSaIiEESaIS2_EED2Ev(%"struct.std::_Vector_base.1"* noundef nonnull align 8 dereferenceable(24) %24) #3
  br label %25

25:                                               ; preds = %20
  %26 = load i8*, i8** %3, align 8
  call void @__clang_call_terminate(i8* %26) #20
  unreachable
}

; Function Attrs: noinline nounwind optnone uwtable
define linkonce_odr dso_local void @_ZNSaISt6vectorIiSaIiEEED2Ev(%"class.std::allocator.2"* noundef nonnull align 1 dereferenceable(1) %0) unnamed_addr #7 comdat align 2 {
  %2 = alloca %"class.std::allocator.2"*, align 8
  store %"class.std::allocator.2"* %0, %"class.std::allocator.2"** %2, align 8
  %3 = load %"class.std::allocator.2"*, %"class.std::allocator.2"** %2, align 8
  %4 = bitcast %"class.std::allocator.2"* %3 to %"class.__gnu_cxx::new_allocator.3"*
  call void @_ZN9__gnu_cxx13new_allocatorISt6vectorIiSaIiEEED2Ev(%"class.__gnu_cxx::new_allocator.3"* noundef nonnull align 1 dereferenceable(1) %4) #3
  ret void
}

; Function Attrs: mustprogress noinline nounwind optnone uwtable
define linkonce_odr dso_local noundef nonnull align 4 dereferenceable(4) i32* @_ZNKSt6vectorIiSaIiEEixEm(%"class.std::vector"* noundef nonnull align 8 dereferenceable(24) %0, i64 noundef %1) #9 comdat align 2 {
  %3 = alloca %"class.std::vector"*, align 8
  %4 = alloca i64, align 8
  store %"class.std::vector"* %0, %"class.std::vector"** %3, align 8
  store i64 %1, i64* %4, align 8
  %5 = load %"class.std::vector"*, %"class.std::vector"** %3, align 8
  %6 = bitcast %"class.std::vector"* %5 to %"struct.std::_Vector_base"*
  %7 = getelementptr inbounds %"struct.std::_Vector_base", %"struct.std::_Vector_base"* %6, i32 0, i32 0
  %8 = bitcast %"struct.std::_Vector_base<int, std::allocator<int>>::_Vector_impl"* %7 to %"struct.std::_Vector_base<int, std::allocator<int>>::_Vector_impl_data"*
  %9 = getelementptr inbounds %"struct.std::_Vector_base<int, std::allocator<int>>::_Vector_impl_data", %"struct.std::_Vector_base<int, std::allocator<int>>::_Vector_impl_data"* %8, i32 0, i32 0
  %10 = load i32*, i32** %9, align 8
  %11 = load i64, i64* %4, align 8
  %12 = getelementptr inbounds i32, i32* %10, i64 %11
  ret i32* %12
}

; Function Attrs: mustprogress noinline nounwind optnone uwtable
define linkonce_odr dso_local i32* @_ZNKSt6vectorIiSaIiEE5beginEv(%"class.std::vector"* noundef nonnull align 8 dereferenceable(24) %0) #9 comdat align 2 {
  %2 = alloca %"class.__gnu_cxx::__normal_iterator", align 8
  %3 = alloca %"class.std::vector"*, align 8
  store %"class.std::vector"* %0, %"class.std::vector"** %3, align 8
  %4 = load %"class.std::vector"*, %"class.std::vector"** %3, align 8
  %5 = bitcast %"class.std::vector"* %4 to %"struct.std::_Vector_base"*
  %6 = getelementptr inbounds %"struct.std::_Vector_base", %"struct.std::_Vector_base"* %5, i32 0, i32 0
  %7 = bitcast %"struct.std::_Vector_base<int, std::allocator<int>>::_Vector_impl"* %6 to %"struct.std::_Vector_base<int, std::allocator<int>>::_Vector_impl_data"*
  %8 = getelementptr inbounds %"struct.std::_Vector_base<int, std::allocator<int>>::_Vector_impl_data", %"struct.std::_Vector_base<int, std::allocator<int>>::_Vector_impl_data"* %7, i32 0, i32 0
  call void @_ZN9__gnu_cxx17__normal_iteratorIPKiSt6vectorIiSaIiEEEC2ERKS2_(%"class.__gnu_cxx::__normal_iterator"* noundef nonnull align 8 dereferenceable(8) %2, i32** noundef nonnull align 8 dereferenceable(8) %8) #3
  %9 = getelementptr inbounds %"class.__gnu_cxx::__normal_iterator", %"class.__gnu_cxx::__normal_iterator"* %2, i32 0, i32 0
  %10 = load i32*, i32** %9, align 8
  ret i32* %10
}

; Function Attrs: mustprogress noinline nounwind optnone uwtable
define linkonce_odr dso_local i32* @_ZNK9__gnu_cxx17__normal_iteratorIPKiSt6vectorIiSaIiEEEplEl(%"class.__gnu_cxx::__normal_iterator"* noundef nonnull align 8 dereferenceable(8) %0, i64 noundef %1) #9 comdat align 2 {
  %3 = alloca %"class.__gnu_cxx::__normal_iterator", align 8
  %4 = alloca %"class.__gnu_cxx::__normal_iterator"*, align 8
  %5 = alloca i64, align 8
  %6 = alloca i32*, align 8
  store %"class.__gnu_cxx::__normal_iterator"* %0, %"class.__gnu_cxx::__normal_iterator"** %4, align 8
  store i64 %1, i64* %5, align 8
  %7 = load %"class.__gnu_cxx::__normal_iterator"*, %"class.__gnu_cxx::__normal_iterator"** %4, align 8
  %8 = getelementptr inbounds %"class.__gnu_cxx::__normal_iterator", %"class.__gnu_cxx::__normal_iterator"* %7, i32 0, i32 0
  %9 = load i32*, i32** %8, align 8
  %10 = load i64, i64* %5, align 8
  %11 = getelementptr inbounds i32, i32* %9, i64 %10
  store i32* %11, i32** %6, align 8
  call void @_ZN9__gnu_cxx17__normal_iteratorIPKiSt6vectorIiSaIiEEEC2ERKS2_(%"class.__gnu_cxx::__normal_iterator"* noundef nonnull align 8 dereferenceable(8) %3, i32** noundef nonnull align 8 dereferenceable(8) %6) #3
  %12 = getelementptr inbounds %"class.__gnu_cxx::__normal_iterator", %"class.__gnu_cxx::__normal_iterator"* %3, i32 0, i32 0
  %13 = load i32*, i32** %12, align 8
  ret i32* %13
}

; Function Attrs: mustprogress noinline nounwind optnone uwtable
define linkonce_odr dso_local i32* @_ZNKSt6vectorIiSaIiEE3endEv(%"class.std::vector"* noundef nonnull align 8 dereferenceable(24) %0) #9 comdat align 2 {
  %2 = alloca %"class.__gnu_cxx::__normal_iterator", align 8
  %3 = alloca %"class.std::vector"*, align 8
  store %"class.std::vector"* %0, %"class.std::vector"** %3, align 8
  %4 = load %"class.std::vector"*, %"class.std::vector"** %3, align 8
  %5 = bitcast %"class.std::vector"* %4 to %"struct.std::_Vector_base"*
  %6 = getelementptr inbounds %"struct.std::_Vector_base", %"struct.std::_Vector_base"* %5, i32 0, i32 0
  %7 = bitcast %"struct.std::_Vector_base<int, std::allocator<int>>::_Vector_impl"* %6 to %"struct.std::_Vector_base<int, std::allocator<int>>::_Vector_impl_data"*
  %8 = getelementptr inbounds %"struct.std::_Vector_base<int, std::allocator<int>>::_Vector_impl_data", %"struct.std::_Vector_base<int, std::allocator<int>>::_Vector_impl_data"* %7, i32 0, i32 1
  call void @_ZN9__gnu_cxx17__normal_iteratorIPKiSt6vectorIiSaIiEEEC2ERKS2_(%"class.__gnu_cxx::__normal_iterator"* noundef nonnull align 8 dereferenceable(8) %2, i32** noundef nonnull align 8 dereferenceable(8) %8) #3
  %9 = getelementptr inbounds %"class.__gnu_cxx::__normal_iterator", %"class.__gnu_cxx::__normal_iterator"* %2, i32 0, i32 0
  %10 = load i32*, i32** %9, align 8
  ret i32* %10
}

; Function Attrs: noinline optnone uwtable
define linkonce_odr dso_local void @_ZNSt6vectorIiSaIiEEC2IN9__gnu_cxx17__normal_iteratorIPKiS1_EEvEET_S8_RKS0_(%"class.std::vector"* noundef nonnull align 8 dereferenceable(24) %0, i32* %1, i32* %2, %"class.std::allocator"* noundef nonnull align 1 dereferenceable(1) %3) unnamed_addr #8 comdat align 2 personality i8* bitcast (i32 (...)* @__gxx_personality_v0 to i8*) {
  %5 = alloca %"class.__gnu_cxx::__normal_iterator", align 8
  %6 = alloca %"class.__gnu_cxx::__normal_iterator", align 8
  %7 = alloca %"class.std::vector"*, align 8
  %8 = alloca %"class.std::allocator"*, align 8
  %9 = alloca %"class.__gnu_cxx::__normal_iterator", align 8
  %10 = alloca %"class.__gnu_cxx::__normal_iterator", align 8
  %11 = alloca %"struct.std::forward_iterator_tag", align 1
  %12 = alloca %"struct.std::random_access_iterator_tag", align 1
  %13 = alloca i8*, align 8
  %14 = alloca i32, align 4
  %15 = alloca %"struct.std::random_access_iterator_tag", align 1
  %16 = getelementptr inbounds %"class.__gnu_cxx::__normal_iterator", %"class.__gnu_cxx::__normal_iterator"* %5, i32 0, i32 0
  store i32* %1, i32** %16, align 8
  %17 = getelementptr inbounds %"class.__gnu_cxx::__normal_iterator", %"class.__gnu_cxx::__normal_iterator"* %6, i32 0, i32 0
  store i32* %2, i32** %17, align 8
  store %"class.std::vector"* %0, %"class.std::vector"** %7, align 8
  store %"class.std::allocator"* %3, %"class.std::allocator"** %8, align 8
  %18 = load %"class.std::vector"*, %"class.std::vector"** %7, align 8
  %19 = bitcast %"class.std::vector"* %18 to %"struct.std::_Vector_base"*
  %20 = load %"class.std::allocator"*, %"class.std::allocator"** %8, align 8
  call void @_ZNSt12_Vector_baseIiSaIiEEC2ERKS0_(%"struct.std::_Vector_base"* noundef nonnull align 8 dereferenceable(24) %19, %"class.std::allocator"* noundef nonnull align 1 dereferenceable(1) %20) #3
  %21 = bitcast %"class.__gnu_cxx::__normal_iterator"* %9 to i8*
  %22 = bitcast %"class.__gnu_cxx::__normal_iterator"* %5 to i8*
  call void @llvm.memcpy.p0i8.p0i8.i64(i8* align 8 %21, i8* align 8 %22, i64 8, i1 false)
  %23 = bitcast %"class.__gnu_cxx::__normal_iterator"* %10 to i8*
  %24 = bitcast %"class.__gnu_cxx::__normal_iterator"* %6 to i8*
  call void @llvm.memcpy.p0i8.p0i8.i64(i8* align 8 %23, i8* align 8 %24, i64 8, i1 false)
  invoke void @_ZSt19__iterator_categoryIN9__gnu_cxx17__normal_iteratorIPKiSt6vectorIiSaIiEEEEENSt15iterator_traitsIT_E17iterator_categoryERKS9_(%"class.__gnu_cxx::__normal_iterator"* noundef nonnull align 8 dereferenceable(8) %5)
          to label %25 unwind label %32

25:                                               ; preds = %4
  %26 = bitcast %"struct.std::random_access_iterator_tag"* %12 to %"struct.std::forward_iterator_tag"*
  %27 = getelementptr inbounds %"class.__gnu_cxx::__normal_iterator", %"class.__gnu_cxx::__normal_iterator"* %9, i32 0, i32 0
  %28 = load i32*, i32** %27, align 8
  %29 = getelementptr inbounds %"class.__gnu_cxx::__normal_iterator", %"class.__gnu_cxx::__normal_iterator"* %10, i32 0, i32 0
  %30 = load i32*, i32** %29, align 8
  invoke void @_ZNSt6vectorIiSaIiEE19_M_range_initializeIN9__gnu_cxx17__normal_iteratorIPKiS1_EEEEvT_S8_St20forward_iterator_tag(%"class.std::vector"* noundef nonnull align 8 dereferenceable(24) %18, i32* %28, i32* %30)
          to label %31 unwind label %32

31:                                               ; preds = %25
  ret void

32:                                               ; preds = %25, %4
  %33 = landingpad { i8*, i32 }
          cleanup
  %34 = extractvalue { i8*, i32 } %33, 0
  store i8* %34, i8** %13, align 8
  %35 = extractvalue { i8*, i32 } %33, 1
  store i32 %35, i32* %14, align 4
  %36 = bitcast %"class.std::vector"* %18 to %"struct.std::_Vector_base"*
  call void @_ZNSt12_Vector_baseIiSaIiEED2Ev(%"struct.std::_Vector_base"* noundef nonnull align 8 dereferenceable(24) %36) #3
  br label %37

37:                                               ; preds = %32
  %38 = load i8*, i8** %13, align 8
  %39 = load i32, i32* %14, align 4
  %40 = insertvalue { i8*, i32 } undef, i8* %38, 0
  %41 = insertvalue { i8*, i32 } %40, i32 %39, 1
  resume { i8*, i32 } %41
}

; Function Attrs: noinline optnone uwtable
define linkonce_odr dso_local void @_ZNSt8functionIFvRKSt6vectorIS0_IiSaIiEESaIS2_EEEEC2IRZ18partition_filteredRKS2_S8_iiEUlS6_E_vEEOT_(%"class.std::function"* noundef nonnull align 8 dereferenceable(32) %0, %class.anon.5* noundef nonnull align 8 dereferenceable(32) %1) unnamed_addr #8 comdat align 2 personality i8* bitcast (i32 (...)* @__gxx_personality_v0 to i8*) {
  %3 = alloca %"class.std::function"*, align 8
  %4 = alloca %class.anon.5*, align 8
  %5 = alloca i8*, align 8
  %6 = alloca i32, align 4
  store %"class.std::function"* %0, %"class.std::function"** %3, align 8
  store %class.anon.5* %1, %class.anon.5** %4, align 8
  %7 = load %"class.std::function"*, %"class.std::function"** %3, align 8
  %8 = bitcast %"class.std::function"* %7 to %"struct.std::_Maybe_unary_or_binary_function"*
  %9 = bitcast %"class.std::function"* %7 to %"class.std::_Function_base"*
  %10 = bitcast %"class.std::_Function_base"* %9 to i8*
  %11 = getelementptr inbounds i8, i8* %10, i64 0
  call void @llvm.memset.p0i8.i64(i8* align 8 %11, i8 0, i64 24, i1 false)
  call void @_ZNSt14_Function_baseC2Ev(%"class.std::_Function_base"* noundef nonnull align 8 dereferenceable(24) %9) #3
  %12 = getelementptr inbounds %"class.std::function", %"class.std::function"* %7, i32 0, i32 1
  store void (%"union.std::_Any_data"*, %"class.std::vector.0"*)* null, void (%"union.std::_Any_data"*, %"class.std::vector.0"*)** %12, align 8
  %13 = load %class.anon.5*, %class.anon.5** %4, align 8
  %14 = invoke noundef zeroext i1 @_ZNSt14_Function_base13_Base_managerIZ18partition_filteredRKSt6vectorIiSaIiEESt8functionIFvRKS1_IS3_SaIS3_EEEEiiEUlSA_E_E21_M_not_empty_functionISD_EEbRKT_(%class.anon.5* noundef nonnull align 8 dereferenceable(32) %13)
          to label %15 unwind label %25

15:                                               ; preds = %2
  br i1 %14, label %16, label %30

16:                                               ; preds = %15
  %17 = bitcast %"class.std::function"* %7 to %"class.std::_Function_base"*
  %18 = getelementptr inbounds %"class.std::_Function_base", %"class.std::_Function_base"* %17, i32 0, i32 0
  %19 = load %class.anon.5*, %class.anon.5** %4, align 8
  %20 = call noundef nonnull align 8 dereferenceable(32) %class.anon.5* @_ZSt7forwardIRZ18partition_filteredRKSt6vectorIiSaIiEESt8functionIFvRKS0_IS2_SaIS2_EEEEiiEUlS9_E_EOT_RNSt16remove_referenceISE_E4typeE(%class.anon.5* noundef nonnull align 8 dereferenceable(32) %19) #3
  invoke void @_ZNSt14_Function_base13_Base_managerIZ18partition_filteredRKSt6vectorIiSaIiEESt8functionIFvRKS1_IS3_SaIS3_EEEEiiEUlSA_E_E15_M_init_functorIRSD_EEvRSt9_Any_dataOT_(%"union.std::_Any_data"* noundef nonnull align 8 dereferenceable(16) %18, %class.anon.5* noundef nonnull align 8 dereferenceable(32) %20)
          to label %21 unwind label %25

21:                                               ; preds = %16
  %22 = getelementptr inbounds %"class.std::function", %"class.std::function"* %7, i32 0, i32 1
  store void (%"union.std::_Any_data"*, %"class.std::vector.0"*)* @_ZNSt17_Function_handlerIFvRKSt6vectorIS0_IiSaIiEESaIS2_EEEZ18partition_filteredRKS2_St8functionIS7_EiiEUlS6_E_E9_M_invokeERKSt9_Any_dataS6_, void (%"union.std::_Any_data"*, %"class.std::vector.0"*)** %22, align 8
  %23 = bitcast %"class.std::function"* %7 to %"class.std::_Function_base"*
  %24 = getelementptr inbounds %"class.std::_Function_base", %"class.std::_Function_base"* %23, i32 0, i32 1
  store i1 (%"union.std::_Any_data"*, %"union.std::_Any_data"*, i32)* @_ZNSt17_Function_handlerIFvRKSt6vectorIS0_IiSaIiEESaIS2_EEEZ18partition_filteredRKS2_St8functionIS7_EiiEUlS6_E_E10_M_managerERSt9_Any_dataRKSE_St18_Manager_operation, i1 (%"union.std::_Any_data"*, %"union.std::_Any_data"*, i32)** %24, align 8
  br label %30

25:                                               ; preds = %16, %2
  %26 = landingpad { i8*, i32 }
          cleanup
  %27 = extractvalue { i8*, i32 } %26, 0
  store i8* %27, i8** %5, align 8
  %28 = extractvalue { i8*, i32 } %26, 1
  store i32 %28, i32* %6, align 4
  %29 = bitcast %"class.std::function"* %7 to %"class.std::_Function_base"*
  call void @_ZNSt14_Function_baseD2Ev(%"class.std::_Function_base"* noundef nonnull align 8 dereferenceable(24) %29) #3
  br label %31

30:                                               ; preds = %21, %15
  ret void

31:                                               ; preds = %25
  %32 = load i8*, i8** %5, align 8
  %33 = load i32, i32* %6, align 4
  %34 = insertvalue { i8*, i32 } undef, i8* %32, 0
  %35 = insertvalue { i8*, i32 } %34, i32 %33, 1
  resume { i8*, i32 } %35
}

; Function Attrs: mustprogress noinline nounwind optnone uwtable
define linkonce_odr dso_local noundef zeroext i1 @_ZNKSt14_Function_base8_M_emptyEv(%"class.std::_Function_base"* noundef nonnull align 8 dereferenceable(24) %0) #9 comdat align 2 {
  %2 = alloca %"class.std::_Function_base"*, align 8
  store %"class.std::_Function_base"* %0, %"class.std::_Function_base"** %2, align 8
  %3 = load %"class.std::_Function_base"*, %"class.std::_Function_base"** %2, align 8
  %4 = getelementptr inbounds %"class.std::_Function_base", %"class.std::_Function_base"* %3, i32 0, i32 1
  %5 = load i1 (%"union.std::_Any_data"*, %"union.std::_Any_data"*, i32)*, i1 (%"union.std::_Any_data"*, %"union.std::_Any_data"*, i32)** %4, align 8
  %6 = icmp ne i1 (%"union.std::_Any_data"*, %"union.std::_Any_data"*, i32)* %5, null
  %7 = xor i1 %6, true
  ret i1 %7
}

; Function Attrs: noreturn
declare void @_ZSt25__throw_bad_function_callv() #10

; Function Attrs: mustprogress noinline nounwind optnone uwtable
define linkonce_odr dso_local noundef nonnull align 8 dereferenceable(24) %"class.std::vector.0"* @_ZSt7forwardIRKSt6vectorIS0_IiSaIiEESaIS2_EEEOT_RNSt16remove_referenceIS7_E4typeE(%"class.std::vector.0"* noundef nonnull align 8 dereferenceable(24) %0) #9 comdat {
  %2 = alloca %"class.std::vector.0"*, align 8
  store %"class.std::vector.0"* %0, %"class.std::vector.0"** %2, align 8
  %3 = load %"class.std::vector.0"*, %"class.std::vector.0"** %2, align 8
  ret %"class.std::vector.0"* %3
}

; Function Attrs: mustprogress noinline optnone uwtable
define linkonce_odr dso_local void @_ZN9__gnu_cxx14__alloc_traitsISaIiEiE17_S_select_on_copyERKS1_(%"class.std::allocator"* noalias sret(%"class.std::allocator") align 1 %0, %"class.std::allocator"* noundef nonnull align 1 dereferenceable(1) %1) #5 comdat align 2 {
  %3 = alloca i8*, align 8
  %4 = alloca %"class.std::allocator"*, align 8
  %5 = bitcast %"class.std::allocator"* %0 to i8*
  store i8* %5, i8** %3, align 8
  store %"class.std::allocator"* %1, %"class.std::allocator"** %4, align 8
  %6 = load %"class.std::allocator"*, %"class.std::allocator"** %4, align 8
  call void @_ZNSt16allocator_traitsISaIiEE37select_on_container_copy_constructionERKS0_(%"class.std::allocator"* sret(%"class.std::allocator") align 1 %0, %"class.std::allocator"* noundef nonnull align 1 dereferenceable(1) %6)
  ret void
}

; Function Attrs: mustprogress noinline nounwind optnone uwtable
define linkonce_odr dso_local noundef nonnull align 1 dereferenceable(1) %"class.std::allocator"* @_ZNKSt12_Vector_baseIiSaIiEE19_M_get_Tp_allocatorEv(%"struct.std::_Vector_base"* noundef nonnull align 8 dereferenceable(24) %0) #9 comdat align 2 {
  %2 = alloca %"struct.std::_Vector_base"*, align 8
  store %"struct.std::_Vector_base"* %0, %"struct.std::_Vector_base"** %2, align 8
  %3 = load %"struct.std::_Vector_base"*, %"struct.std::_Vector_base"** %2, align 8
  %4 = getelementptr inbounds %"struct.std::_Vector_base", %"struct.std::_Vector_base"* %3, i32 0, i32 0
  %5 = bitcast %"struct.std::_Vector_base<int, std::allocator<int>>::_Vector_impl"* %4 to %"class.std::allocator"*
  ret %"class.std::allocator"* %5
}

; Function Attrs: mustprogress noinline optnone uwtable
define linkonce_odr dso_local noundef i32* @_ZSt22__uninitialized_copy_aIN9__gnu_cxx17__normal_iteratorIPKiSt6vectorIiSaIiEEEEPiiET0_T_SA_S9_RSaIT1_E(i32* %0, i32* %1, i32* noundef %2, %"class.std::allocator"* noundef nonnull align 1 dereferenceable(1) %3) #5 comdat {
  %5 = alloca %"class.__gnu_cxx::__normal_iterator", align 8
  %6 = alloca %"class.__gnu_cxx::__normal_iterator", align 8
  %7 = alloca i32*, align 8
  %8 = alloca %"class.std::allocator"*, align 8
  %9 = alloca %"class.__gnu_cxx::__normal_iterator", align 8
  %10 = alloca %"class.__gnu_cxx::__normal_iterator", align 8
  %11 = getelementptr inbounds %"class.__gnu_cxx::__normal_iterator", %"class.__gnu_cxx::__normal_iterator"* %5, i32 0, i32 0
  store i32* %0, i32** %11, align 8
  %12 = getelementptr inbounds %"class.__gnu_cxx::__normal_iterator", %"class.__gnu_cxx::__normal_iterator"* %6, i32 0, i32 0
  store i32* %1, i32** %12, align 8
  store i32* %2, i32** %7, align 8
  store %"class.std::allocator"* %3, %"class.std::allocator"** %8, align 8
  %13 = bitcast %"class.__gnu_cxx::__normal_iterator"* %9 to i8*
  %14 = bitcast %"class.__gnu_cxx::__normal_iterator"* %5 to i8*
  call void @llvm.memcpy.p0i8.p0i8.i64(i8* align 8 %13, i8* align 8 %14, i64 8, i1 false)
  %15 = bitcast %"class.__gnu_cxx::__normal_iterator"* %10 to i8*
  %16 = bitcast %"class.__gnu_cxx::__normal_iterator"* %6 to i8*
  call void @llvm.memcpy.p0i8.p0i8.i64(i8* align 8 %15, i8* align 8 %16, i64 8, i1 false)
  %17 = load i32*, i32** %7, align 8
  %18 = getelementptr inbounds %"class.__gnu_cxx::__normal_iterator", %"class.__gnu_cxx::__normal_iterator"* %9, i32 0, i32 0
  %19 = load i32*, i32** %18, align 8
  %20 = getelementptr inbounds %"class.__gnu_cxx::__normal_iterator", %"class.__gnu_cxx::__normal_iterator"* %10, i32 0, i32 0
  %21 = load i32*, i32** %20, align 8
  %22 = call noundef i32* @_ZSt18uninitialized_copyIN9__gnu_cxx17__normal_iteratorIPKiSt6vectorIiSaIiEEEEPiET0_T_SA_S9_(i32* %19, i32* %21, i32* noundef %17)
  ret i32* %22
}

; Function Attrs: mustprogress noinline nounwind optnone uwtable
define linkonce_odr dso_local void @_ZNSt16allocator_traitsISaIiEE37select_on_container_copy_constructionERKS0_(%"class.std::allocator"* noalias sret(%"class.std::allocator") align 1 %0, %"class.std::allocator"* noundef nonnull align 1 dereferenceable(1) %1) #9 comdat align 2 {
  %3 = alloca i8*, align 8
  %4 = alloca %"class.std::allocator"*, align 8
  %5 = bitcast %"class.std::allocator"* %0 to i8*
  store i8* %5, i8** %3, align 8
  store %"class.std::allocator"* %1, %"class.std::allocator"** %4, align 8
  %6 = load %"class.std::allocator"*, %"class.std::allocator"** %4, align 8
  call void @_ZNSaIiEC2ERKS_(%"class.std::allocator"* noundef nonnull align 1 dereferenceable(1) %0, %"class.std::allocator"* noundef nonnull align 1 dereferenceable(1) %6) #3
  ret void
}

; Function Attrs: mustprogress noinline optnone uwtable
define linkonce_odr dso_local noundef i32* @_ZSt18uninitialized_copyIN9__gnu_cxx17__normal_iteratorIPKiSt6vectorIiSaIiEEEEPiET0_T_SA_S9_(i32* %0, i32* %1, i32* noundef %2) #5 comdat {
  %4 = alloca %"class.__gnu_cxx::__normal_iterator", align 8
  %5 = alloca %"class.__gnu_cxx::__normal_iterator", align 8
  %6 = alloca i32*, align 8
  %7 = alloca i8, align 1
  %8 = alloca %"class.__gnu_cxx::__normal_iterator", align 8
  %9 = alloca %"class.__gnu_cxx::__normal_iterator", align 8
  %10 = getelementptr inbounds %"class.__gnu_cxx::__normal_iterator", %"class.__gnu_cxx::__normal_iterator"* %4, i32 0, i32 0
  store i32* %0, i32** %10, align 8
  %11 = getelementptr inbounds %"class.__gnu_cxx::__normal_iterator", %"class.__gnu_cxx::__normal_iterator"* %5, i32 0, i32 0
  store i32* %1, i32** %11, align 8
  store i32* %2, i32** %6, align 8
  store i8 1, i8* %7, align 1
  %12 = bitcast %"class.__gnu_cxx::__normal_iterator"* %8 to i8*
  %13 = bitcast %"class.__gnu_cxx::__normal_iterator"* %4 to i8*
  call void @llvm.memcpy.p0i8.p0i8.i64(i8* align 8 %12, i8* align 8 %13, i64 8, i1 false)
  %14 = bitcast %"class.__gnu_cxx::__normal_iterator"* %9 to i8*
  %15 = bitcast %"class.__gnu_cxx::__normal_iterator"* %5 to i8*
  call void @llvm.memcpy.p0i8.p0i8.i64(i8* align 8 %14, i8* align 8 %15, i64 8, i1 false)
  %16 = load i32*, i32** %6, align 8
  %17 = getelementptr inbounds %"class.__gnu_cxx::__normal_iterator", %"class.__gnu_cxx::__normal_iterator"* %8, i32 0, i32 0
  %18 = load i32*, i32** %17, align 8
  %19 = getelementptr inbounds %"class.__gnu_cxx::__normal_iterator", %"class.__gnu_cxx::__normal_iterator"* %9, i32 0, i32 0
  %20 = load i32*, i32** %19, align 8
  %21 = call noundef i32* @_ZNSt20__uninitialized_copyILb1EE13__uninit_copyIN9__gnu_cxx17__normal_iteratorIPKiSt6vectorIiSaIiEEEEPiEET0_T_SC_SB_(i32* %18, i32* %20, i32* noundef %16)
  ret i32* %21
}

; Function Attrs: argmemonly nofree nounwind willreturn
declare void @llvm.memcpy.p0i8.p0i8.i64(i8* noalias nocapture writeonly, i8* noalias nocapture readonly, i64, i1 immarg) #14

; Function Attrs: mustprogress noinline optnone uwtable
define linkonce_odr dso_local noundef i32* @_ZNSt20__uninitialized_copyILb1EE13__uninit_copyIN9__gnu_cxx17__normal_iteratorIPKiSt6vectorIiSaIiEEEEPiEET0_T_SC_SB_(i32* %0, i32* %1, i32* noundef %2) #5 comdat align 2 {
  %4 = alloca %"class.__gnu_cxx::__normal_iterator", align 8
  %5 = alloca %"class.__gnu_cxx::__normal_iterator", align 8
  %6 = alloca i32*, align 8
  %7 = alloca %"class.__gnu_cxx::__normal_iterator", align 8
  %8 = alloca %"class.__gnu_cxx::__normal_iterator", align 8
  %9 = getelementptr inbounds %"class.__gnu_cxx::__normal_iterator", %"class.__gnu_cxx::__normal_iterator"* %4, i32 0, i32 0
  store i32* %0, i32** %9, align 8
  %10 = getelementptr inbounds %"class.__gnu_cxx::__normal_iterator", %"class.__gnu_cxx::__normal_iterator"* %5, i32 0, i32 0
  store i32* %1, i32** %10, align 8
  store i32* %2, i32** %6, align 8
  %11 = bitcast %"class.__gnu_cxx::__normal_iterator"* %7 to i8*
  %12 = bitcast %"class.__gnu_cxx::__normal_iterator"* %4 to i8*
  call void @llvm.memcpy.p0i8.p0i8.i64(i8* align 8 %11, i8* align 8 %12, i64 8, i1 false)
  %13 = bitcast %"class.__gnu_cxx::__normal_iterator"* %8 to i8*
  %14 = bitcast %"class.__gnu_cxx::__normal_iterator"* %5 to i8*
  call void @llvm.memcpy.p0i8.p0i8.i64(i8* align 8 %13, i8* align 8 %14, i64 8, i1 false)
  %15 = load i32*, i32** %6, align 8
  %16 = getelementptr inbounds %"class.__gnu_cxx::__normal_iterator", %"class.__gnu_cxx::__normal_iterator"* %7, i32 0, i32 0
  %17 = load i32*, i32** %16, align 8
  %18 = getelementptr inbounds %"class.__gnu_cxx::__normal_iterator", %"class.__gnu_cxx::__normal_iterator"* %8, i32 0, i32 0
  %19 = load i32*, i32** %18, align 8
  %20 = call noundef i32* @_ZSt4copyIN9__gnu_cxx17__normal_iteratorIPKiSt6vectorIiSaIiEEEEPiET0_T_SA_S9_(i32* %17, i32* %19, i32* noundef %15)
  ret i32* %20
}

; Function Attrs: mustprogress noinline optnone uwtable
define linkonce_odr dso_local noundef i32* @_ZSt4copyIN9__gnu_cxx17__normal_iteratorIPKiSt6vectorIiSaIiEEEEPiET0_T_SA_S9_(i32* %0, i32* %1, i32* noundef %2) #5 comdat {
  %4 = alloca %"class.__gnu_cxx::__normal_iterator", align 8
  %5 = alloca %"class.__gnu_cxx::__normal_iterator", align 8
  %6 = alloca i32*, align 8
  %7 = alloca %"class.__gnu_cxx::__normal_iterator", align 8
  %8 = alloca %"class.__gnu_cxx::__normal_iterator", align 8
  %9 = alloca %"class.__gnu_cxx::__normal_iterator", align 8
  %10 = alloca %"class.__gnu_cxx::__normal_iterator", align 8
  %11 = getelementptr inbounds %"class.__gnu_cxx::__normal_iterator", %"class.__gnu_cxx::__normal_iterator"* %4, i32 0, i32 0
  store i32* %0, i32** %11, align 8
  %12 = getelementptr inbounds %"class.__gnu_cxx::__normal_iterator", %"class.__gnu_cxx::__normal_iterator"* %5, i32 0, i32 0
  store i32* %1, i32** %12, align 8
  store i32* %2, i32** %6, align 8
  %13 = bitcast %"class.__gnu_cxx::__normal_iterator"* %8 to i8*
  %14 = bitcast %"class.__gnu_cxx::__normal_iterator"* %4 to i8*
  call void @llvm.memcpy.p0i8.p0i8.i64(i8* align 8 %13, i8* align 8 %14, i64 8, i1 false)
  %15 = getelementptr inbounds %"class.__gnu_cxx::__normal_iterator", %"class.__gnu_cxx::__normal_iterator"* %8, i32 0, i32 0
  %16 = load i32*, i32** %15, align 8
  %17 = call i32* @_ZSt12__miter_baseIN9__gnu_cxx17__normal_iteratorIPKiSt6vectorIiSaIiEEEEET_S8_(i32* %16)
  %18 = getelementptr inbounds %"class.__gnu_cxx::__normal_iterator", %"class.__gnu_cxx::__normal_iterator"* %7, i32 0, i32 0
  store i32* %17, i32** %18, align 8
  %19 = bitcast %"class.__gnu_cxx::__normal_iterator"* %10 to i8*
  %20 = bitcast %"class.__gnu_cxx::__normal_iterator"* %5 to i8*
  call void @llvm.memcpy.p0i8.p0i8.i64(i8* align 8 %19, i8* align 8 %20, i64 8, i1 false)
  %21 = getelementptr inbounds %"class.__gnu_cxx::__normal_iterator", %"class.__gnu_cxx::__normal_iterator"* %10, i32 0, i32 0
  %22 = load i32*, i32** %21, align 8
  %23 = call i32* @_ZSt12__miter_baseIN9__gnu_cxx17__normal_iteratorIPKiSt6vectorIiSaIiEEEEET_S8_(i32* %22)
  %24 = getelementptr inbounds %"class.__gnu_cxx::__normal_iterator", %"class.__gnu_cxx::__normal_iterator"* %9, i32 0, i32 0
  store i32* %23, i32** %24, align 8
  %25 = load i32*, i32** %6, align 8
  %26 = getelementptr inbounds %"class.__gnu_cxx::__normal_iterator", %"class.__gnu_cxx::__normal_iterator"* %7, i32 0, i32 0
  %27 = load i32*, i32** %26, align 8
  %28 = getelementptr inbounds %"class.__gnu_cxx::__normal_iterator", %"class.__gnu_cxx::__normal_iterator"* %9, i32 0, i32 0
  %29 = load i32*, i32** %28, align 8
  %30 = call noundef i32* @_ZSt13__copy_move_aILb0EN9__gnu_cxx17__normal_iteratorIPKiSt6vectorIiSaIiEEEEPiET1_T0_SA_S9_(i32* %27, i32* %29, i32* noundef %25)
  ret i32* %30
}

; Function Attrs: mustprogress noinline optnone uwtable
define linkonce_odr dso_local noundef i32* @_ZSt13__copy_move_aILb0EN9__gnu_cxx17__normal_iteratorIPKiSt6vectorIiSaIiEEEEPiET1_T0_SA_S9_(i32* %0, i32* %1, i32* noundef %2) #5 comdat {
  %4 = alloca %"class.__gnu_cxx::__normal_iterator", align 8
  %5 = alloca %"class.__gnu_cxx::__normal_iterator", align 8
  %6 = alloca i32*, align 8
  %7 = alloca %"class.__gnu_cxx::__normal_iterator", align 8
  %8 = alloca %"class.__gnu_cxx::__normal_iterator", align 8
  %9 = getelementptr inbounds %"class.__gnu_cxx::__normal_iterator", %"class.__gnu_cxx::__normal_iterator"* %4, i32 0, i32 0
  store i32* %0, i32** %9, align 8
  %10 = getelementptr inbounds %"class.__gnu_cxx::__normal_iterator", %"class.__gnu_cxx::__normal_iterator"* %5, i32 0, i32 0
  store i32* %1, i32** %10, align 8
  store i32* %2, i32** %6, align 8
  %11 = bitcast %"class.__gnu_cxx::__normal_iterator"* %7 to i8*
  %12 = bitcast %"class.__gnu_cxx::__normal_iterator"* %4 to i8*
  call void @llvm.memcpy.p0i8.p0i8.i64(i8* align 8 %11, i8* align 8 %12, i64 8, i1 false)
  %13 = getelementptr inbounds %"class.__gnu_cxx::__normal_iterator", %"class.__gnu_cxx::__normal_iterator"* %7, i32 0, i32 0
  %14 = load i32*, i32** %13, align 8
  %15 = call noundef i32* @_ZSt12__niter_baseIPKiSt6vectorIiSaIiEEET_N9__gnu_cxx17__normal_iteratorIS5_T0_EE(i32* %14) #3
  %16 = bitcast %"class.__gnu_cxx::__normal_iterator"* %8 to i8*
  %17 = bitcast %"class.__gnu_cxx::__normal_iterator"* %5 to i8*
  call void @llvm.memcpy.p0i8.p0i8.i64(i8* align 8 %16, i8* align 8 %17, i64 8, i1 false)
  %18 = getelementptr inbounds %"class.__gnu_cxx::__normal_iterator", %"class.__gnu_cxx::__normal_iterator"* %8, i32 0, i32 0
  %19 = load i32*, i32** %18, align 8
  %20 = call noundef i32* @_ZSt12__niter_baseIPKiSt6vectorIiSaIiEEET_N9__gnu_cxx17__normal_iteratorIS5_T0_EE(i32* %19) #3
  %21 = load i32*, i32** %6, align 8
  %22 = call noundef i32* @_ZSt12__niter_baseIPiET_S1_(i32* noundef %21) #3
  %23 = call noundef i32* @_ZSt14__copy_move_a1ILb0EPKiPiET1_T0_S4_S3_(i32* noundef %15, i32* noundef %20, i32* noundef %22)
  %24 = call noundef i32* @_ZSt12__niter_wrapIPiET_RKS1_S1_(i32** noundef nonnull align 8 dereferenceable(8) %6, i32* noundef %23)
  ret i32* %24
}

; Function Attrs: mustprogress noinline nounwind optnone uwtable
define linkonce_odr dso_local i32* @_ZSt12__miter_baseIN9__gnu_cxx17__normal_iteratorIPKiSt6vectorIiSaIiEEEEET_S8_(i32* %0) #9 comdat {
  %2 = alloca %"class.__gnu_cxx::__normal_iterator", align 8
  %3 = alloca %"class.__gnu_cxx::__normal_iterator", align 8
  %4 = getelementptr inbounds %"class.__gnu_cxx::__normal_iterator", %"class.__gnu_cxx::__normal_iterator"* %3, i32 0, i32 0
  store i32* %0, i32** %4, align 8
  %5 = bitcast %"class.__gnu_cxx::__normal_iterator"* %2 to i8*
  %6 = bitcast %"class.__gnu_cxx::__normal_iterator"* %3 to i8*
  call void @llvm.memcpy.p0i8.p0i8.i64(i8* align 8 %5, i8* align 8 %6, i64 8, i1 false)
  %7 = getelementptr inbounds %"class.__gnu_cxx::__normal_iterator", %"class.__gnu_cxx::__normal_iterator"* %2, i32 0, i32 0
  %8 = load i32*, i32** %7, align 8
  ret i32* %8
}

; Function Attrs: mustprogress noinline nounwind optnone uwtable
define linkonce_odr dso_local noundef i32* @_ZSt12__niter_wrapIPiET_RKS1_S1_(i32** noundef nonnull align 8 dereferenceable(8) %0, i32* noundef %1) #9 comdat {
  %3 = alloca i32**, align 8
  %4 = alloca i32*, align 8
  store i32** %0, i32*** %3, align 8
  store i32* %1, i32** %4, align 8
  %5 = load i32*, i32** %4, align 8
  ret i32* %5
}

; Function Attrs: mustprogress noinline optnone uwtable
define linkonce_odr dso_local noundef i32* @_ZSt14__copy_move_a1ILb0EPKiPiET1_T0_S4_S3_(i32* noundef %0, i32* noundef %1, i32* noundef %2) #5 comdat {
  %4 = alloca i32*, align 8
  %5 = alloca i32*, align 8
  %6 = alloca i32*, align 8
  store i32* %0, i32** %4, align 8
  store i32* %1, i32** %5, align 8
  store i32* %2, i32** %6, align 8
  %7 = load i32*, i32** %4, align 8
  %8 = load i32*, i32** %5, align 8
  %9 = load i32*, i32** %6, align 8
  %10 = call noundef i32* @_ZSt14__copy_move_a2ILb0EPKiPiET1_T0_S4_S3_(i32* noundef %7, i32* noundef %8, i32* noundef %9)
  ret i32* %10
}

; Function Attrs: mustprogress noinline nounwind optnone uwtable
define linkonce_odr dso_local noundef i32* @_ZSt12__niter_baseIPKiSt6vectorIiSaIiEEET_N9__gnu_cxx17__normal_iteratorIS5_T0_EE(i32* %0) #9 comdat {
  %2 = alloca %"class.__gnu_cxx::__normal_iterator", align 8
  %3 = getelementptr inbounds %"class.__gnu_cxx::__normal_iterator", %"class.__gnu_cxx::__normal_iterator"* %2, i32 0, i32 0
  store i32* %0, i32** %3, align 8
  %4 = call noundef nonnull align 8 dereferenceable(8) i32** @_ZNK9__gnu_cxx17__normal_iteratorIPKiSt6vectorIiSaIiEEE4baseEv(%"class.__gnu_cxx::__normal_iterator"* noundef nonnull align 8 dereferenceable(8) %2) #3
  %5 = load i32*, i32** %4, align 8
  ret i32* %5
}

; Function Attrs: mustprogress noinline nounwind optnone uwtable
define linkonce_odr dso_local noundef i32* @_ZSt12__niter_baseIPiET_S1_(i32* noundef %0) #9 comdat {
  %2 = alloca i32*, align 8
  store i32* %0, i32** %2, align 8
  %3 = load i32*, i32** %2, align 8
  ret i32* %3
}

; Function Attrs: mustprogress noinline optnone uwtable
define linkonce_odr dso_local noundef i32* @_ZSt14__copy_move_a2ILb0EPKiPiET1_T0_S4_S3_(i32* noundef %0, i32* noundef %1, i32* noundef %2) #5 comdat {
  %4 = alloca i32*, align 8
  %5 = alloca i32*, align 8
  %6 = alloca i32*, align 8
  store i32* %0, i32** %4, align 8
  store i32* %1, i32** %5, align 8
  store i32* %2, i32** %6, align 8
  %7 = load i32*, i32** %4, align 8
  %8 = load i32*, i32** %5, align 8
  %9 = load i32*, i32** %6, align 8
  %10 = call noundef i32* @_ZNSt11__copy_moveILb0ELb1ESt26random_access_iterator_tagE8__copy_mIiEEPT_PKS3_S6_S4_(i32* noundef %7, i32* noundef %8, i32* noundef %9)
  ret i32* %10
}

; Function Attrs: mustprogress noinline nounwind optnone uwtable
define linkonce_odr dso_local noundef i32* @_ZNSt11__copy_moveILb0ELb1ESt26random_access_iterator_tagE8__copy_mIiEEPT_PKS3_S6_S4_(i32* noundef %0, i32* noundef %1, i32* noundef %2) #9 comdat align 2 {
  %4 = alloca i32*, align 8
  %5 = alloca i32*, align 8
  %6 = alloca i32*, align 8
  %7 = alloca i64, align 8
  store i32* %0, i32** %4, align 8
  store i32* %1, i32** %5, align 8
  store i32* %2, i32** %6, align 8
  %8 = load i32*, i32** %5, align 8
  %9 = load i32*, i32** %4, align 8
  %10 = ptrtoint i32* %8 to i64
  %11 = ptrtoint i32* %9 to i64
  %12 = sub i64 %10, %11
  %13 = sdiv exact i64 %12, 4
  store i64 %13, i64* %7, align 8
  %14 = load i64, i64* %7, align 8
  %15 = icmp ne i64 %14, 0
  br i1 %15, label %16, label %23

16:                                               ; preds = %3
  %17 = load i32*, i32** %6, align 8
  %18 = bitcast i32* %17 to i8*
  %19 = load i32*, i32** %4, align 8
  %20 = bitcast i32* %19 to i8*
  %21 = load i64, i64* %7, align 8
  %22 = mul i64 4, %21
  call void @llvm.memmove.p0i8.p0i8.i64(i8* align 4 %18, i8* align 4 %20, i64 %22, i1 false)
  br label %23

23:                                               ; preds = %16, %3
  %24 = load i32*, i32** %6, align 8
  %25 = load i64, i64* %7, align 8
  %26 = getelementptr inbounds i32, i32* %24, i64 %25
  ret i32* %26
}

; Function Attrs: argmemonly nofree nounwind willreturn
declare void @llvm.memmove.p0i8.p0i8.i64(i8* nocapture writeonly, i8* nocapture readonly, i64, i1 immarg) #14

; Function Attrs: mustprogress noinline nounwind optnone uwtable
define linkonce_odr dso_local noundef nonnull align 8 dereferenceable(8) i32** @_ZNK9__gnu_cxx17__normal_iteratorIPKiSt6vectorIiSaIiEEE4baseEv(%"class.__gnu_cxx::__normal_iterator"* noundef nonnull align 8 dereferenceable(8) %0) #9 comdat align 2 {
  %2 = alloca %"class.__gnu_cxx::__normal_iterator"*, align 8
  store %"class.__gnu_cxx::__normal_iterator"* %0, %"class.__gnu_cxx::__normal_iterator"** %2, align 8
  %3 = load %"class.__gnu_cxx::__normal_iterator"*, %"class.__gnu_cxx::__normal_iterator"** %2, align 8
  %4 = getelementptr inbounds %"class.__gnu_cxx::__normal_iterator", %"class.__gnu_cxx::__normal_iterator"* %3, i32 0, i32 0
  ret i32** %4
}

; Function Attrs: noinline nounwind optnone uwtable
define linkonce_odr dso_local void @_ZN9__gnu_cxx13new_allocatorISt6vectorIiSaIiEEEC2Ev(%"class.__gnu_cxx::new_allocator.3"* noundef nonnull align 1 dereferenceable(1) %0) unnamed_addr #7 comdat align 2 {
  %2 = alloca %"class.__gnu_cxx::new_allocator.3"*, align 8
  store %"class.__gnu_cxx::new_allocator.3"* %0, %"class.__gnu_cxx::new_allocator.3"** %2, align 8
  %3 = load %"class.__gnu_cxx::new_allocator.3"*, %"class.__gnu_cxx::new_allocator.3"** %2, align 8
  ret void
}

; Function Attrs: noinline nounwind optnone uwtable
define linkonce_odr dso_local void @_ZNSt12_Vector_baseISt6vectorIiSaIiEESaIS2_EEC2ERKS3_(%"struct.std::_Vector_base.1"* noundef nonnull align 8 dereferenceable(24) %0, %"class.std::allocator.2"* noundef nonnull align 1 dereferenceable(1) %1) unnamed_addr #7 comdat align 2 {
  %3 = alloca %"struct.std::_Vector_base.1"*, align 8
  %4 = alloca %"class.std::allocator.2"*, align 8
  store %"struct.std::_Vector_base.1"* %0, %"struct.std::_Vector_base.1"** %3, align 8
  store %"class.std::allocator.2"* %1, %"class.std::allocator.2"** %4, align 8
  %5 = load %"struct.std::_Vector_base.1"*, %"struct.std::_Vector_base.1"** %3, align 8
  %6 = getelementptr inbounds %"struct.std::_Vector_base.1", %"struct.std::_Vector_base.1"* %5, i32 0, i32 0
  %7 = load %"class.std::allocator.2"*, %"class.std::allocator.2"** %4, align 8
  call void @_ZNSt12_Vector_baseISt6vectorIiSaIiEESaIS2_EE12_Vector_implC2ERKS3_(%"struct.std::_Vector_base<std::vector<int>, std::allocator<std::vector<int>>>::_Vector_impl"* noundef nonnull align 8 dereferenceable(24) %6, %"class.std::allocator.2"* noundef nonnull align 1 dereferenceable(1) %7) #3
  ret void
}

; Function Attrs: mustprogress noinline optnone uwtable
define linkonce_odr dso_local void @_ZNSt6vectorIS_IiSaIiEESaIS1_EE19_M_range_initializeIPKS1_EEvT_S7_St20forward_iterator_tag(%"class.std::vector.0"* noundef nonnull align 8 dereferenceable(24) %0, %"class.std::vector"* noundef %1, %"class.std::vector"* noundef %2) #5 comdat align 2 {
  %4 = alloca %"struct.std::forward_iterator_tag", align 1
  %5 = alloca %"class.std::vector.0"*, align 8
  %6 = alloca %"class.std::vector"*, align 8
  %7 = alloca %"class.std::vector"*, align 8
  %8 = alloca i64, align 8
  store %"class.std::vector.0"* %0, %"class.std::vector.0"** %5, align 8
  store %"class.std::vector"* %1, %"class.std::vector"** %6, align 8
  store %"class.std::vector"* %2, %"class.std::vector"** %7, align 8
  %9 = load %"class.std::vector.0"*, %"class.std::vector.0"** %5, align 8
  %10 = load %"class.std::vector"*, %"class.std::vector"** %6, align 8
  %11 = load %"class.std::vector"*, %"class.std::vector"** %7, align 8
  %12 = call noundef i64 @_ZSt8distanceIPKSt6vectorIiSaIiEEENSt15iterator_traitsIT_E15difference_typeES6_S6_(%"class.std::vector"* noundef %10, %"class.std::vector"* noundef %11)
  store i64 %12, i64* %8, align 8
  %13 = bitcast %"class.std::vector.0"* %9 to %"struct.std::_Vector_base.1"*
  %14 = load i64, i64* %8, align 8
  %15 = bitcast %"class.std::vector.0"* %9 to %"struct.std::_Vector_base.1"*
  %16 = call noundef nonnull align 1 dereferenceable(1) %"class.std::allocator.2"* @_ZNSt12_Vector_baseISt6vectorIiSaIiEESaIS2_EE19_M_get_Tp_allocatorEv(%"struct.std::_Vector_base.1"* noundef nonnull align 8 dereferenceable(24) %15) #3
  %17 = call noundef i64 @_ZNSt6vectorIS_IiSaIiEESaIS1_EE17_S_check_init_lenEmRKS2_(i64 noundef %14, %"class.std::allocator.2"* noundef nonnull align 1 dereferenceable(1) %16)
  %18 = call noundef %"class.std::vector"* @_ZNSt12_Vector_baseISt6vectorIiSaIiEESaIS2_EE11_M_allocateEm(%"struct.std::_Vector_base.1"* noundef nonnull align 8 dereferenceable(24) %13, i64 noundef %17)
  %19 = bitcast %"class.std::vector.0"* %9 to %"struct.std::_Vector_base.1"*
  %20 = getelementptr inbounds %"struct.std::_Vector_base.1", %"struct.std::_Vector_base.1"* %19, i32 0, i32 0
  %21 = bitcast %"struct.std::_Vector_base<std::vector<int>, std::allocator<std::vector<int>>>::_Vector_impl"* %20 to %"struct.std::_Vector_base<std::vector<int>, std::allocator<std::vector<int>>>::_Vector_impl_data"*
  %22 = getelementptr inbounds %"struct.std::_Vector_base<std::vector<int>, std::allocator<std::vector<int>>>::_Vector_impl_data", %"struct.std::_Vector_base<std::vector<int>, std::allocator<std::vector<int>>>::_Vector_impl_data"* %21, i32 0, i32 0
  store %"class.std::vector"* %18, %"class.std::vector"** %22, align 8
  %23 = bitcast %"class.std::vector.0"* %9 to %"struct.std::_Vector_base.1"*
  %24 = getelementptr inbounds %"struct.std::_Vector_base.1", %"struct.std::_Vector_base.1"* %23, i32 0, i32 0
  %25 = bitcast %"struct.std::_Vector_base<std::vector<int>, std::allocator<std::vector<int>>>::_Vector_impl"* %24 to %"struct.std::_Vector_base<std::vector<int>, std::allocator<std::vector<int>>>::_Vector_impl_data"*
  %26 = getelementptr inbounds %"struct.std::_Vector_base<std::vector<int>, std::allocator<std::vector<int>>>::_Vector_impl_data", %"struct.std::_Vector_base<std::vector<int>, std::allocator<std::vector<int>>>::_Vector_impl_data"* %25, i32 0, i32 0
  %27 = load %"class.std::vector"*, %"class.std::vector"** %26, align 8
  %28 = load i64, i64* %8, align 8
  %29 = getelementptr inbounds %"class.std::vector", %"class.std::vector"* %27, i64 %28
  %30 = bitcast %"class.std::vector.0"* %9 to %"struct.std::_Vector_base.1"*
  %31 = getelementptr inbounds %"struct.std::_Vector_base.1", %"struct.std::_Vector_base.1"* %30, i32 0, i32 0
  %32 = bitcast %"struct.std::_Vector_base<std::vector<int>, std::allocator<std::vector<int>>>::_Vector_impl"* %31 to %"struct.std::_Vector_base<std::vector<int>, std::allocator<std::vector<int>>>::_Vector_impl_data"*
  %33 = getelementptr inbounds %"struct.std::_Vector_base<std::vector<int>, std::allocator<std::vector<int>>>::_Vector_impl_data", %"struct.std::_Vector_base<std::vector<int>, std::allocator<std::vector<int>>>::_Vector_impl_data"* %32, i32 0, i32 2
  store %"class.std::vector"* %29, %"class.std::vector"** %33, align 8
  %34 = load %"class.std::vector"*, %"class.std::vector"** %6, align 8
  %35 = load %"class.std::vector"*, %"class.std::vector"** %7, align 8
  %36 = bitcast %"class.std::vector.0"* %9 to %"struct.std::_Vector_base.1"*
  %37 = getelementptr inbounds %"struct.std::_Vector_base.1", %"struct.std::_Vector_base.1"* %36, i32 0, i32 0
  %38 = bitcast %"struct.std::_Vector_base<std::vector<int>, std::allocator<std::vector<int>>>::_Vector_impl"* %37 to %"struct.std::_Vector_base<std::vector<int>, std::allocator<std::vector<int>>>::_Vector_impl_data"*
  %39 = getelementptr inbounds %"struct.std::_Vector_base<std::vector<int>, std::allocator<std::vector<int>>>::_Vector_impl_data", %"struct.std::_Vector_base<std::vector<int>, std::allocator<std::vector<int>>>::_Vector_impl_data"* %38, i32 0, i32 0
  %40 = load %"class.std::vector"*, %"class.std::vector"** %39, align 8
  %41 = bitcast %"class.std::vector.0"* %9 to %"struct.std::_Vector_base.1"*
  %42 = call noundef nonnull align 1 dereferenceable(1) %"class.std::allocator.2"* @_ZNSt12_Vector_baseISt6vectorIiSaIiEESaIS2_EE19_M_get_Tp_allocatorEv(%"struct.std::_Vector_base.1"* noundef nonnull align 8 dereferenceable(24) %41) #3
  %43 = call noundef %"class.std::vector"* @_ZSt22__uninitialized_copy_aIPKSt6vectorIiSaIiEEPS2_S2_ET0_T_S7_S6_RSaIT1_E(%"class.std::vector"* noundef %34, %"class.std::vector"* noundef %35, %"class.std::vector"* noundef %40, %"class.std::allocator.2"* noundef nonnull align 1 dereferenceable(1) %42)
  %44 = bitcast %"class.std::vector.0"* %9 to %"struct.std::_Vector_base.1"*
  %45 = getelementptr inbounds %"struct.std::_Vector_base.1", %"struct.std::_Vector_base.1"* %44, i32 0, i32 0
  %46 = bitcast %"struct.std::_Vector_base<std::vector<int>, std::allocator<std::vector<int>>>::_Vector_impl"* %45 to %"struct.std::_Vector_base<std::vector<int>, std::allocator<std::vector<int>>>::_Vector_impl_data"*
  %47 = getelementptr inbounds %"struct.std::_Vector_base<std::vector<int>, std::allocator<std::vector<int>>>::_Vector_impl_data", %"struct.std::_Vector_base<std::vector<int>, std::allocator<std::vector<int>>>::_Vector_impl_data"* %46, i32 0, i32 1
  store %"class.std::vector"* %43, %"class.std::vector"** %47, align 8
  ret void
}

; Function Attrs: mustprogress noinline nounwind optnone uwtable
define linkonce_odr dso_local noundef %"class.std::vector"* @_ZNKSt16initializer_listISt6vectorIiSaIiEEE5beginEv(%"class.std::initializer_list"* noundef nonnull align 8 dereferenceable(16) %0) #9 comdat align 2 {
  %2 = alloca %"class.std::initializer_list"*, align 8
  store %"class.std::initializer_list"* %0, %"class.std::initializer_list"** %2, align 8
  %3 = load %"class.std::initializer_list"*, %"class.std::initializer_list"** %2, align 8
  %4 = getelementptr inbounds %"class.std::initializer_list", %"class.std::initializer_list"* %3, i32 0, i32 0
  %5 = load %"class.std::vector"*, %"class.std::vector"** %4, align 8
  ret %"class.std::vector"* %5
}

; Function Attrs: mustprogress noinline nounwind optnone uwtable
define linkonce_odr dso_local noundef %"class.std::vector"* @_ZNKSt16initializer_listISt6vectorIiSaIiEEE3endEv(%"class.std::initializer_list"* noundef nonnull align 8 dereferenceable(16) %0) #9 comdat align 2 {
  %2 = alloca %"class.std::initializer_list"*, align 8
  store %"class.std::initializer_list"* %0, %"class.std::initializer_list"** %2, align 8
  %3 = load %"class.std::initializer_list"*, %"class.std::initializer_list"** %2, align 8
  %4 = call noundef %"class.std::vector"* @_ZNKSt16initializer_listISt6vectorIiSaIiEEE5beginEv(%"class.std::initializer_list"* noundef nonnull align 8 dereferenceable(16) %3) #3
  %5 = call noundef i64 @_ZNKSt16initializer_listISt6vectorIiSaIiEEE4sizeEv(%"class.std::initializer_list"* noundef nonnull align 8 dereferenceable(16) %3) #3
  %6 = getelementptr inbounds %"class.std::vector", %"class.std::vector"* %4, i64 %5
  ret %"class.std::vector"* %6
}

; Function Attrs: noinline nounwind optnone uwtable
define linkonce_odr dso_local void @_ZNSt12_Vector_baseISt6vectorIiSaIiEESaIS2_EED2Ev(%"struct.std::_Vector_base.1"* noundef nonnull align 8 dereferenceable(24) %0) unnamed_addr #7 comdat align 2 personality i8* bitcast (i32 (...)* @__gxx_personality_v0 to i8*) {
  %2 = alloca %"struct.std::_Vector_base.1"*, align 8
  %3 = alloca i8*, align 8
  %4 = alloca i32, align 4
  store %"struct.std::_Vector_base.1"* %0, %"struct.std::_Vector_base.1"** %2, align 8
  %5 = load %"struct.std::_Vector_base.1"*, %"struct.std::_Vector_base.1"** %2, align 8
  %6 = getelementptr inbounds %"struct.std::_Vector_base.1", %"struct.std::_Vector_base.1"* %5, i32 0, i32 0
  %7 = bitcast %"struct.std::_Vector_base<std::vector<int>, std::allocator<std::vector<int>>>::_Vector_impl"* %6 to %"struct.std::_Vector_base<std::vector<int>, std::allocator<std::vector<int>>>::_Vector_impl_data"*
  %8 = getelementptr inbounds %"struct.std::_Vector_base<std::vector<int>, std::allocator<std::vector<int>>>::_Vector_impl_data", %"struct.std::_Vector_base<std::vector<int>, std::allocator<std::vector<int>>>::_Vector_impl_data"* %7, i32 0, i32 0
  %9 = load %"class.std::vector"*, %"class.std::vector"** %8, align 8
  %10 = getelementptr inbounds %"struct.std::_Vector_base.1", %"struct.std::_Vector_base.1"* %5, i32 0, i32 0
  %11 = bitcast %"struct.std::_Vector_base<std::vector<int>, std::allocator<std::vector<int>>>::_Vector_impl"* %10 to %"struct.std::_Vector_base<std::vector<int>, std::allocator<std::vector<int>>>::_Vector_impl_data"*
  %12 = getelementptr inbounds %"struct.std::_Vector_base<std::vector<int>, std::allocator<std::vector<int>>>::_Vector_impl_data", %"struct.std::_Vector_base<std::vector<int>, std::allocator<std::vector<int>>>::_Vector_impl_data"* %11, i32 0, i32 2
  %13 = load %"class.std::vector"*, %"class.std::vector"** %12, align 8
  %14 = getelementptr inbounds %"struct.std::_Vector_base.1", %"struct.std::_Vector_base.1"* %5, i32 0, i32 0
  %15 = bitcast %"struct.std::_Vector_base<std::vector<int>, std::allocator<std::vector<int>>>::_Vector_impl"* %14 to %"struct.std::_Vector_base<std::vector<int>, std::allocator<std::vector<int>>>::_Vector_impl_data"*
  %16 = getelementptr inbounds %"struct.std::_Vector_base<std::vector<int>, std::allocator<std::vector<int>>>::_Vector_impl_data", %"struct.std::_Vector_base<std::vector<int>, std::allocator<std::vector<int>>>::_Vector_impl_data"* %15, i32 0, i32 0
  %17 = load %"class.std::vector"*, %"class.std::vector"** %16, align 8
  %18 = ptrtoint %"class.std::vector"* %13 to i64
  %19 = ptrtoint %"class.std::vector"* %17 to i64
  %20 = sub i64 %18, %19
  %21 = sdiv exact i64 %20, 24
  invoke void @_ZNSt12_Vector_baseISt6vectorIiSaIiEESaIS2_EE13_M_deallocateEPS2_m(%"struct.std::_Vector_base.1"* noundef nonnull align 8 dereferenceable(24) %5, %"class.std::vector"* noundef %9, i64 noundef %21)
          to label %22 unwind label %24

22:                                               ; preds = %1
  %23 = getelementptr inbounds %"struct.std::_Vector_base.1", %"struct.std::_Vector_base.1"* %5, i32 0, i32 0
  call void @_ZNSt12_Vector_baseISt6vectorIiSaIiEESaIS2_EE12_Vector_implD2Ev(%"struct.std::_Vector_base<std::vector<int>, std::allocator<std::vector<int>>>::_Vector_impl"* noundef nonnull align 8 dereferenceable(24) %23) #3
  ret void

24:                                               ; preds = %1
  %25 = landingpad { i8*, i32 }
          catch i8* null
  %26 = extractvalue { i8*, i32 } %25, 0
  store i8* %26, i8** %3, align 8
  %27 = extractvalue { i8*, i32 } %25, 1
  store i32 %27, i32* %4, align 4
  %28 = getelementptr inbounds %"struct.std::_Vector_base.1", %"struct.std::_Vector_base.1"* %5, i32 0, i32 0
  call void @_ZNSt12_Vector_baseISt6vectorIiSaIiEESaIS2_EE12_Vector_implD2Ev(%"struct.std::_Vector_base<std::vector<int>, std::allocator<std::vector<int>>>::_Vector_impl"* noundef nonnull align 8 dereferenceable(24) %28) #3
  br label %29

29:                                               ; preds = %24
  %30 = load i8*, i8** %3, align 8
  call void @__clang_call_terminate(i8* %30) #20
  unreachable
}

; Function Attrs: noinline nounwind optnone uwtable
define linkonce_odr dso_local void @_ZNSt12_Vector_baseISt6vectorIiSaIiEESaIS2_EE12_Vector_implC2ERKS3_(%"struct.std::_Vector_base<std::vector<int>, std::allocator<std::vector<int>>>::_Vector_impl"* noundef nonnull align 8 dereferenceable(24) %0, %"class.std::allocator.2"* noundef nonnull align 1 dereferenceable(1) %1) unnamed_addr #7 comdat align 2 {
  %3 = alloca %"struct.std::_Vector_base<std::vector<int>, std::allocator<std::vector<int>>>::_Vector_impl"*, align 8
  %4 = alloca %"class.std::allocator.2"*, align 8
  store %"struct.std::_Vector_base<std::vector<int>, std::allocator<std::vector<int>>>::_Vector_impl"* %0, %"struct.std::_Vector_base<std::vector<int>, std::allocator<std::vector<int>>>::_Vector_impl"** %3, align 8
  store %"class.std::allocator.2"* %1, %"class.std::allocator.2"** %4, align 8
  %5 = load %"struct.std::_Vector_base<std::vector<int>, std::allocator<std::vector<int>>>::_Vector_impl"*, %"struct.std::_Vector_base<std::vector<int>, std::allocator<std::vector<int>>>::_Vector_impl"** %3, align 8
  %6 = bitcast %"struct.std::_Vector_base<std::vector<int>, std::allocator<std::vector<int>>>::_Vector_impl"* %5 to %"class.std::allocator.2"*
  %7 = load %"class.std::allocator.2"*, %"class.std::allocator.2"** %4, align 8
  call void @_ZNSaISt6vectorIiSaIiEEEC2ERKS2_(%"class.std::allocator.2"* noundef nonnull align 1 dereferenceable(1) %6, %"class.std::allocator.2"* noundef nonnull align 1 dereferenceable(1) %7) #3
  %8 = bitcast %"struct.std::_Vector_base<std::vector<int>, std::allocator<std::vector<int>>>::_Vector_impl"* %5 to %"struct.std::_Vector_base<std::vector<int>, std::allocator<std::vector<int>>>::_Vector_impl_data"*
  call void @_ZNSt12_Vector_baseISt6vectorIiSaIiEESaIS2_EE17_Vector_impl_dataC2Ev(%"struct.std::_Vector_base<std::vector<int>, std::allocator<std::vector<int>>>::_Vector_impl_data"* noundef nonnull align 8 dereferenceable(24) %8) #3
  ret void
}

; Function Attrs: noinline nounwind optnone uwtable
define linkonce_odr dso_local void @_ZNSt12_Vector_baseISt6vectorIiSaIiEESaIS2_EE17_Vector_impl_dataC2Ev(%"struct.std::_Vector_base<std::vector<int>, std::allocator<std::vector<int>>>::_Vector_impl_data"* noundef nonnull align 8 dereferenceable(24) %0) unnamed_addr #7 comdat align 2 {
  %2 = alloca %"struct.std::_Vector_base<std::vector<int>, std::allocator<std::vector<int>>>::_Vector_impl_data"*, align 8
  store %"struct.std::_Vector_base<std::vector<int>, std::allocator<std::vector<int>>>::_Vector_impl_data"* %0, %"struct.std::_Vector_base<std::vector<int>, std::allocator<std::vector<int>>>::_Vector_impl_data"** %2, align 8
  %3 = load %"struct.std::_Vector_base<std::vector<int>, std::allocator<std::vector<int>>>::_Vector_impl_data"*, %"struct.std::_Vector_base<std::vector<int>, std::allocator<std::vector<int>>>::_Vector_impl_data"** %2, align 8
  %4 = getelementptr inbounds %"struct.std::_Vector_base<std::vector<int>, std::allocator<std::vector<int>>>::_Vector_impl_data", %"struct.std::_Vector_base<std::vector<int>, std::allocator<std::vector<int>>>::_Vector_impl_data"* %3, i32 0, i32 0
  store %"class.std::vector"* null, %"class.std::vector"** %4, align 8
  %5 = getelementptr inbounds %"struct.std::_Vector_base<std::vector<int>, std::allocator<std::vector<int>>>::_Vector_impl_data", %"struct.std::_Vector_base<std::vector<int>, std::allocator<std::vector<int>>>::_Vector_impl_data"* %3, i32 0, i32 1
  store %"class.std::vector"* null, %"class.std::vector"** %5, align 8
  %6 = getelementptr inbounds %"struct.std::_Vector_base<std::vector<int>, std::allocator<std::vector<int>>>::_Vector_impl_data", %"struct.std::_Vector_base<std::vector<int>, std::allocator<std::vector<int>>>::_Vector_impl_data"* %3, i32 0, i32 2
  store %"class.std::vector"* null, %"class.std::vector"** %6, align 8
  ret void
}

; Function Attrs: noinline nounwind optnone uwtable
define linkonce_odr dso_local void @_ZN9__gnu_cxx13new_allocatorISt6vectorIiSaIiEEEC2ERKS4_(%"class.__gnu_cxx::new_allocator.3"* noundef nonnull align 1 dereferenceable(1) %0, %"class.__gnu_cxx::new_allocator.3"* noundef nonnull align 1 dereferenceable(1) %1) unnamed_addr #7 comdat align 2 {
  %3 = alloca %"class.__gnu_cxx::new_allocator.3"*, align 8
  %4 = alloca %"class.__gnu_cxx::new_allocator.3"*, align 8
  store %"class.__gnu_cxx::new_allocator.3"* %0, %"class.__gnu_cxx::new_allocator.3"** %3, align 8
  store %"class.__gnu_cxx::new_allocator.3"* %1, %"class.__gnu_cxx::new_allocator.3"** %4, align 8
  %5 = load %"class.__gnu_cxx::new_allocator.3"*, %"class.__gnu_cxx::new_allocator.3"** %3, align 8
  ret void
}

; Function Attrs: mustprogress noinline optnone uwtable
define linkonce_odr dso_local noundef i64 @_ZSt8distanceIPKSt6vectorIiSaIiEEENSt15iterator_traitsIT_E15difference_typeES6_S6_(%"class.std::vector"* noundef %0, %"class.std::vector"* noundef %1) #5 comdat {
  %3 = alloca %"class.std::vector"*, align 8
  %4 = alloca %"class.std::vector"*, align 8
  %5 = alloca %"struct.std::random_access_iterator_tag", align 1
  %6 = alloca %"struct.std::random_access_iterator_tag", align 1
  store %"class.std::vector"* %0, %"class.std::vector"** %3, align 8
  store %"class.std::vector"* %1, %"class.std::vector"** %4, align 8
  %7 = load %"class.std::vector"*, %"class.std::vector"** %3, align 8
  %8 = load %"class.std::vector"*, %"class.std::vector"** %4, align 8
  call void @_ZSt19__iterator_categoryIPKSt6vectorIiSaIiEEENSt15iterator_traitsIT_E17iterator_categoryERKS6_(%"class.std::vector"** noundef nonnull align 8 dereferenceable(8) %3)
  %9 = call noundef i64 @_ZSt10__distanceIPKSt6vectorIiSaIiEEENSt15iterator_traitsIT_E15difference_typeES6_S6_St26random_access_iterator_tag(%"class.std::vector"* noundef %7, %"class.std::vector"* noundef %8)
  ret i64 %9
}

; Function Attrs: mustprogress noinline optnone uwtable
define linkonce_odr dso_local noundef %"class.std::vector"* @_ZNSt12_Vector_baseISt6vectorIiSaIiEESaIS2_EE11_M_allocateEm(%"struct.std::_Vector_base.1"* noundef nonnull align 8 dereferenceable(24) %0, i64 noundef %1) #5 comdat align 2 {
  %3 = alloca %"struct.std::_Vector_base.1"*, align 8
  %4 = alloca i64, align 8
  store %"struct.std::_Vector_base.1"* %0, %"struct.std::_Vector_base.1"** %3, align 8
  store i64 %1, i64* %4, align 8
  %5 = load %"struct.std::_Vector_base.1"*, %"struct.std::_Vector_base.1"** %3, align 8
  %6 = load i64, i64* %4, align 8
  %7 = icmp ne i64 %6, 0
  br i1 %7, label %8, label %13

8:                                                ; preds = %2
  %9 = getelementptr inbounds %"struct.std::_Vector_base.1", %"struct.std::_Vector_base.1"* %5, i32 0, i32 0
  %10 = bitcast %"struct.std::_Vector_base<std::vector<int>, std::allocator<std::vector<int>>>::_Vector_impl"* %9 to %"class.std::allocator.2"*
  %11 = load i64, i64* %4, align 8
  %12 = call noundef %"class.std::vector"* @_ZNSt16allocator_traitsISaISt6vectorIiSaIiEEEE8allocateERS3_m(%"class.std::allocator.2"* noundef nonnull align 1 dereferenceable(1) %10, i64 noundef %11)
  br label %14

13:                                               ; preds = %2
  br label %14

14:                                               ; preds = %13, %8
  %15 = phi %"class.std::vector"* [ %12, %8 ], [ null, %13 ]
  ret %"class.std::vector"* %15
}

; Function Attrs: mustprogress noinline optnone uwtable
define linkonce_odr dso_local noundef i64 @_ZNSt6vectorIS_IiSaIiEESaIS1_EE17_S_check_init_lenEmRKS2_(i64 noundef %0, %"class.std::allocator.2"* noundef nonnull align 1 dereferenceable(1) %1) #5 comdat align 2 {
  %3 = alloca i64, align 8
  %4 = alloca %"class.std::allocator.2"*, align 8
  %5 = alloca %"class.std::allocator.2", align 1
  store i64 %0, i64* %3, align 8
  store %"class.std::allocator.2"* %1, %"class.std::allocator.2"** %4, align 8
  %6 = load i64, i64* %3, align 8
  %7 = load %"class.std::allocator.2"*, %"class.std::allocator.2"** %4, align 8
  call void @_ZNSaISt6vectorIiSaIiEEEC2ERKS2_(%"class.std::allocator.2"* noundef nonnull align 1 dereferenceable(1) %5, %"class.std::allocator.2"* noundef nonnull align 1 dereferenceable(1) %7) #3
  %8 = call noundef i64 @_ZNSt6vectorIS_IiSaIiEESaIS1_EE11_S_max_sizeERKS2_(%"class.std::allocator.2"* noundef nonnull align 1 dereferenceable(1) %5) #3
  %9 = icmp ugt i64 %6, %8
  call void @_ZNSaISt6vectorIiSaIiEEED2Ev(%"class.std::allocator.2"* noundef nonnull align 1 dereferenceable(1) %5) #3
  br i1 %9, label %10, label %11

10:                                               ; preds = %2
  call void @_ZSt20__throw_length_errorPKc(i8* noundef getelementptr inbounds ([49 x i8], [49 x i8]* @.str, i64 0, i64 0)) #21
  unreachable

11:                                               ; preds = %2
  %12 = load i64, i64* %3, align 8
  ret i64 %12
}

; Function Attrs: mustprogress noinline nounwind optnone uwtable
define linkonce_odr dso_local noundef nonnull align 1 dereferenceable(1) %"class.std::allocator.2"* @_ZNSt12_Vector_baseISt6vectorIiSaIiEESaIS2_EE19_M_get_Tp_allocatorEv(%"struct.std::_Vector_base.1"* noundef nonnull align 8 dereferenceable(24) %0) #9 comdat align 2 {
  %2 = alloca %"struct.std::_Vector_base.1"*, align 8
  store %"struct.std::_Vector_base.1"* %0, %"struct.std::_Vector_base.1"** %2, align 8
  %3 = load %"struct.std::_Vector_base.1"*, %"struct.std::_Vector_base.1"** %2, align 8
  %4 = getelementptr inbounds %"struct.std::_Vector_base.1", %"struct.std::_Vector_base.1"* %3, i32 0, i32 0
  %5 = bitcast %"struct.std::_Vector_base<std::vector<int>, std::allocator<std::vector<int>>>::_Vector_impl"* %4 to %"class.std::allocator.2"*
  ret %"class.std::allocator.2"* %5
}

; Function Attrs: mustprogress noinline optnone uwtable
define linkonce_odr dso_local noundef %"class.std::vector"* @_ZSt22__uninitialized_copy_aIPKSt6vectorIiSaIiEEPS2_S2_ET0_T_S7_S6_RSaIT1_E(%"class.std::vector"* noundef %0, %"class.std::vector"* noundef %1, %"class.std::vector"* noundef %2, %"class.std::allocator.2"* noundef nonnull align 1 dereferenceable(1) %3) #5 comdat {
  %5 = alloca %"class.std::vector"*, align 8
  %6 = alloca %"class.std::vector"*, align 8
  %7 = alloca %"class.std::vector"*, align 8
  %8 = alloca %"class.std::allocator.2"*, align 8
  store %"class.std::vector"* %0, %"class.std::vector"** %5, align 8
  store %"class.std::vector"* %1, %"class.std::vector"** %6, align 8
  store %"class.std::vector"* %2, %"class.std::vector"** %7, align 8
  store %"class.std::allocator.2"* %3, %"class.std::allocator.2"** %8, align 8
  %9 = load %"class.std::vector"*, %"class.std::vector"** %5, align 8
  %10 = load %"class.std::vector"*, %"class.std::vector"** %6, align 8
  %11 = load %"class.std::vector"*, %"class.std::vector"** %7, align 8
  %12 = call noundef %"class.std::vector"* @_ZSt18uninitialized_copyIPKSt6vectorIiSaIiEEPS2_ET0_T_S7_S6_(%"class.std::vector"* noundef %9, %"class.std::vector"* noundef %10, %"class.std::vector"* noundef %11)
  ret %"class.std::vector"* %12
}

; Function Attrs: mustprogress noinline nounwind optnone uwtable
define linkonce_odr dso_local noundef i64 @_ZSt10__distanceIPKSt6vectorIiSaIiEEENSt15iterator_traitsIT_E15difference_typeES6_S6_St26random_access_iterator_tag(%"class.std::vector"* noundef %0, %"class.std::vector"* noundef %1) #9 comdat {
  %3 = alloca %"struct.std::random_access_iterator_tag", align 1
  %4 = alloca %"class.std::vector"*, align 8
  %5 = alloca %"class.std::vector"*, align 8
  store %"class.std::vector"* %0, %"class.std::vector"** %4, align 8
  store %"class.std::vector"* %1, %"class.std::vector"** %5, align 8
  %6 = load %"class.std::vector"*, %"class.std::vector"** %5, align 8
  %7 = load %"class.std::vector"*, %"class.std::vector"** %4, align 8
  %8 = ptrtoint %"class.std::vector"* %6 to i64
  %9 = ptrtoint %"class.std::vector"* %7 to i64
  %10 = sub i64 %8, %9
  %11 = sdiv exact i64 %10, 24
  ret i64 %11
}

; Function Attrs: mustprogress noinline nounwind optnone uwtable
define linkonce_odr dso_local void @_ZSt19__iterator_categoryIPKSt6vectorIiSaIiEEENSt15iterator_traitsIT_E17iterator_categoryERKS6_(%"class.std::vector"** noundef nonnull align 8 dereferenceable(8) %0) #9 comdat {
  %2 = alloca %"class.std::vector"**, align 8
  store %"class.std::vector"** %0, %"class.std::vector"*** %2, align 8
  ret void
}

; Function Attrs: mustprogress noinline optnone uwtable
define linkonce_odr dso_local noundef %"class.std::vector"* @_ZNSt16allocator_traitsISaISt6vectorIiSaIiEEEE8allocateERS3_m(%"class.std::allocator.2"* noundef nonnull align 1 dereferenceable(1) %0, i64 noundef %1) #5 comdat align 2 {
  %3 = alloca %"class.std::allocator.2"*, align 8
  %4 = alloca i64, align 8
  store %"class.std::allocator.2"* %0, %"class.std::allocator.2"** %3, align 8
  store i64 %1, i64* %4, align 8
  %5 = load %"class.std::allocator.2"*, %"class.std::allocator.2"** %3, align 8
  %6 = bitcast %"class.std::allocator.2"* %5 to %"class.__gnu_cxx::new_allocator.3"*
  %7 = load i64, i64* %4, align 8
  %8 = call noundef %"class.std::vector"* @_ZN9__gnu_cxx13new_allocatorISt6vectorIiSaIiEEE8allocateEmPKv(%"class.__gnu_cxx::new_allocator.3"* noundef nonnull align 1 dereferenceable(1) %6, i64 noundef %7, i8* noundef null)
  ret %"class.std::vector"* %8
}

; Function Attrs: mustprogress noinline optnone uwtable
define linkonce_odr dso_local noundef %"class.std::vector"* @_ZN9__gnu_cxx13new_allocatorISt6vectorIiSaIiEEE8allocateEmPKv(%"class.__gnu_cxx::new_allocator.3"* noundef nonnull align 1 dereferenceable(1) %0, i64 noundef %1, i8* noundef %2) #5 comdat align 2 {
  %4 = alloca %"class.__gnu_cxx::new_allocator.3"*, align 8
  %5 = alloca i64, align 8
  %6 = alloca i8*, align 8
  store %"class.__gnu_cxx::new_allocator.3"* %0, %"class.__gnu_cxx::new_allocator.3"** %4, align 8
  store i64 %1, i64* %5, align 8
  store i8* %2, i8** %6, align 8
  %7 = load %"class.__gnu_cxx::new_allocator.3"*, %"class.__gnu_cxx::new_allocator.3"** %4, align 8
  %8 = load i64, i64* %5, align 8
  %9 = call noundef i64 @_ZNK9__gnu_cxx13new_allocatorISt6vectorIiSaIiEEE11_M_max_sizeEv(%"class.__gnu_cxx::new_allocator.3"* noundef nonnull align 1 dereferenceable(1) %7) #3
  %10 = icmp ugt i64 %8, %9
  br i1 %10, label %11, label %16

11:                                               ; preds = %3
  %12 = load i64, i64* %5, align 8
  %13 = icmp ugt i64 %12, 768614336404564650
  br i1 %13, label %14, label %15

14:                                               ; preds = %11
  call void @_ZSt28__throw_bad_array_new_lengthv() #21
  unreachable

15:                                               ; preds = %11
  call void @_ZSt17__throw_bad_allocv() #21
  unreachable

16:                                               ; preds = %3
  %17 = load i64, i64* %5, align 8
  %18 = mul i64 %17, 24
  %19 = call noalias noundef nonnull i8* @_Znwm(i64 noundef %18) #22
  %20 = bitcast i8* %19 to %"class.std::vector"*
  ret %"class.std::vector"* %20
}

; Function Attrs: mustprogress noinline nounwind optnone uwtable
define linkonce_odr dso_local noundef i64 @_ZNK9__gnu_cxx13new_allocatorISt6vectorIiSaIiEEE11_M_max_sizeEv(%"class.__gnu_cxx::new_allocator.3"* noundef nonnull align 1 dereferenceable(1) %0) #9 comdat align 2 {
  %2 = alloca %"class.__gnu_cxx::new_allocator.3"*, align 8
  store %"class.__gnu_cxx::new_allocator.3"* %0, %"class.__gnu_cxx::new_allocator.3"** %2, align 8
  %3 = load %"class.__gnu_cxx::new_allocator.3"*, %"class.__gnu_cxx::new_allocator.3"** %2, align 8
  ret i64 384307168202282325
}

; Function Attrs: mustprogress noinline nounwind optnone uwtable
define linkonce_odr dso_local noundef i64 @_ZNSt6vectorIS_IiSaIiEESaIS1_EE11_S_max_sizeERKS2_(%"class.std::allocator.2"* noundef nonnull align 1 dereferenceable(1) %0) #9 comdat align 2 {
  %2 = alloca %"class.std::allocator.2"*, align 8
  %3 = alloca i64, align 8
  %4 = alloca i64, align 8
  store %"class.std::allocator.2"* %0, %"class.std::allocator.2"** %2, align 8
  store i64 384307168202282325, i64* %3, align 8
  %5 = load %"class.std::allocator.2"*, %"class.std::allocator.2"** %2, align 8
  %6 = call noundef i64 @_ZNSt16allocator_traitsISaISt6vectorIiSaIiEEEE8max_sizeERKS3_(%"class.std::allocator.2"* noundef nonnull align 1 dereferenceable(1) %5) #3
  store i64 %6, i64* %4, align 8
  %7 = call noundef nonnull align 8 dereferenceable(8) i64* @_ZSt3minImERKT_S2_S2_(i64* noundef nonnull align 8 dereferenceable(8) %3, i64* noundef nonnull align 8 dereferenceable(8) %4)
  %8 = load i64, i64* %7, align 8
  ret i64 %8
}

; Function Attrs: noinline nounwind optnone uwtable
define linkonce_odr dso_local void @_ZNSaISt6vectorIiSaIiEEEC2ERKS2_(%"class.std::allocator.2"* noundef nonnull align 1 dereferenceable(1) %0, %"class.std::allocator.2"* noundef nonnull align 1 dereferenceable(1) %1) unnamed_addr #7 comdat align 2 {
  %3 = alloca %"class.std::allocator.2"*, align 8
  %4 = alloca %"class.std::allocator.2"*, align 8
  store %"class.std::allocator.2"* %0, %"class.std::allocator.2"** %3, align 8
  store %"class.std::allocator.2"* %1, %"class.std::allocator.2"** %4, align 8
  %5 = load %"class.std::allocator.2"*, %"class.std::allocator.2"** %3, align 8
  %6 = bitcast %"class.std::allocator.2"* %5 to %"class.__gnu_cxx::new_allocator.3"*
  %7 = load %"class.std::allocator.2"*, %"class.std::allocator.2"** %4, align 8
  %8 = bitcast %"class.std::allocator.2"* %7 to %"class.__gnu_cxx::new_allocator.3"*
  call void @_ZN9__gnu_cxx13new_allocatorISt6vectorIiSaIiEEEC2ERKS4_(%"class.__gnu_cxx::new_allocator.3"* noundef nonnull align 1 dereferenceable(1) %6, %"class.__gnu_cxx::new_allocator.3"* noundef nonnull align 1 dereferenceable(1) %8) #3
  ret void
}

; Function Attrs: mustprogress noinline nounwind optnone uwtable
define linkonce_odr dso_local noundef i64 @_ZNSt16allocator_traitsISaISt6vectorIiSaIiEEEE8max_sizeERKS3_(%"class.std::allocator.2"* noundef nonnull align 1 dereferenceable(1) %0) #9 comdat align 2 {
  %2 = alloca %"class.std::allocator.2"*, align 8
  store %"class.std::allocator.2"* %0, %"class.std::allocator.2"** %2, align 8
  %3 = load %"class.std::allocator.2"*, %"class.std::allocator.2"** %2, align 8
  %4 = bitcast %"class.std::allocator.2"* %3 to %"class.__gnu_cxx::new_allocator.3"*
  %5 = call noundef i64 @_ZNK9__gnu_cxx13new_allocatorISt6vectorIiSaIiEEE8max_sizeEv(%"class.__gnu_cxx::new_allocator.3"* noundef nonnull align 1 dereferenceable(1) %4) #3
  ret i64 %5
}

; Function Attrs: mustprogress noinline nounwind optnone uwtable
define linkonce_odr dso_local noundef i64 @_ZNK9__gnu_cxx13new_allocatorISt6vectorIiSaIiEEE8max_sizeEv(%"class.__gnu_cxx::new_allocator.3"* noundef nonnull align 1 dereferenceable(1) %0) #9 comdat align 2 {
  %2 = alloca %"class.__gnu_cxx::new_allocator.3"*, align 8
  store %"class.__gnu_cxx::new_allocator.3"* %0, %"class.__gnu_cxx::new_allocator.3"** %2, align 8
  %3 = load %"class.__gnu_cxx::new_allocator.3"*, %"class.__gnu_cxx::new_allocator.3"** %2, align 8
  %4 = call noundef i64 @_ZNK9__gnu_cxx13new_allocatorISt6vectorIiSaIiEEE11_M_max_sizeEv(%"class.__gnu_cxx::new_allocator.3"* noundef nonnull align 1 dereferenceable(1) %3) #3
  ret i64 %4
}

; Function Attrs: mustprogress noinline optnone uwtable
define linkonce_odr dso_local noundef %"class.std::vector"* @_ZSt18uninitialized_copyIPKSt6vectorIiSaIiEEPS2_ET0_T_S7_S6_(%"class.std::vector"* noundef %0, %"class.std::vector"* noundef %1, %"class.std::vector"* noundef %2) #5 comdat {
  %4 = alloca %"class.std::vector"*, align 8
  %5 = alloca %"class.std::vector"*, align 8
  %6 = alloca %"class.std::vector"*, align 8
  %7 = alloca i8, align 1
  store %"class.std::vector"* %0, %"class.std::vector"** %4, align 8
  store %"class.std::vector"* %1, %"class.std::vector"** %5, align 8
  store %"class.std::vector"* %2, %"class.std::vector"** %6, align 8
  store i8 1, i8* %7, align 1
  %8 = load %"class.std::vector"*, %"class.std::vector"** %4, align 8
  %9 = load %"class.std::vector"*, %"class.std::vector"** %5, align 8
  %10 = load %"class.std::vector"*, %"class.std::vector"** %6, align 8
  %11 = call noundef %"class.std::vector"* @_ZNSt20__uninitialized_copyILb0EE13__uninit_copyIPKSt6vectorIiSaIiEEPS4_EET0_T_S9_S8_(%"class.std::vector"* noundef %8, %"class.std::vector"* noundef %9, %"class.std::vector"* noundef %10)
  ret %"class.std::vector"* %11
}

; Function Attrs: mustprogress noinline optnone uwtable
define linkonce_odr dso_local noundef %"class.std::vector"* @_ZNSt20__uninitialized_copyILb0EE13__uninit_copyIPKSt6vectorIiSaIiEEPS4_EET0_T_S9_S8_(%"class.std::vector"* noundef %0, %"class.std::vector"* noundef %1, %"class.std::vector"* noundef %2) #5 comdat align 2 personality i8* bitcast (i32 (...)* @__gxx_personality_v0 to i8*) {
  %4 = alloca %"class.std::vector"*, align 8
  %5 = alloca %"class.std::vector"*, align 8
  %6 = alloca %"class.std::vector"*, align 8
  %7 = alloca %"class.std::vector"*, align 8
  %8 = alloca i8*, align 8
  %9 = alloca i32, align 4
  store %"class.std::vector"* %0, %"class.std::vector"** %4, align 8
  store %"class.std::vector"* %1, %"class.std::vector"** %5, align 8
  store %"class.std::vector"* %2, %"class.std::vector"** %6, align 8
  %10 = load %"class.std::vector"*, %"class.std::vector"** %6, align 8
  store %"class.std::vector"* %10, %"class.std::vector"** %7, align 8
  br label %11

11:                                               ; preds = %20, %3
  %12 = load %"class.std::vector"*, %"class.std::vector"** %4, align 8
  %13 = load %"class.std::vector"*, %"class.std::vector"** %5, align 8
  %14 = icmp ne %"class.std::vector"* %12, %13
  br i1 %14, label %15, label %35

15:                                               ; preds = %11
  %16 = load %"class.std::vector"*, %"class.std::vector"** %7, align 8
  %17 = call noundef %"class.std::vector"* @_ZSt11__addressofISt6vectorIiSaIiEEEPT_RS3_(%"class.std::vector"* noundef nonnull align 8 dereferenceable(24) %16) #3
  %18 = load %"class.std::vector"*, %"class.std::vector"** %4, align 8
  invoke void @_ZSt10_ConstructISt6vectorIiSaIiEEJRKS2_EEvPT_DpOT0_(%"class.std::vector"* noundef %17, %"class.std::vector"* noundef nonnull align 8 dereferenceable(24) %18)
          to label %19 unwind label %25

19:                                               ; preds = %15
  br label %20

20:                                               ; preds = %19
  %21 = load %"class.std::vector"*, %"class.std::vector"** %4, align 8
  %22 = getelementptr inbounds %"class.std::vector", %"class.std::vector"* %21, i32 1
  store %"class.std::vector"* %22, %"class.std::vector"** %4, align 8
  %23 = load %"class.std::vector"*, %"class.std::vector"** %7, align 8
  %24 = getelementptr inbounds %"class.std::vector", %"class.std::vector"* %23, i32 1
  store %"class.std::vector"* %24, %"class.std::vector"** %7, align 8
  br label %11, !llvm.loop !9

25:                                               ; preds = %15
  %26 = landingpad { i8*, i32 }
          catch i8* null
  %27 = extractvalue { i8*, i32 } %26, 0
  store i8* %27, i8** %8, align 8
  %28 = extractvalue { i8*, i32 } %26, 1
  store i32 %28, i32* %9, align 4
  br label %29

29:                                               ; preds = %25
  %30 = load i8*, i8** %8, align 8
  %31 = call i8* @__cxa_begin_catch(i8* %30) #3
  %32 = load %"class.std::vector"*, %"class.std::vector"** %6, align 8
  %33 = load %"class.std::vector"*, %"class.std::vector"** %7, align 8
  invoke void @_ZSt8_DestroyIPSt6vectorIiSaIiEEEvT_S4_(%"class.std::vector"* noundef %32, %"class.std::vector"* noundef %33)
          to label %34 unwind label %37

34:                                               ; preds = %29
  invoke void @__cxa_rethrow() #21
          to label %51 unwind label %37

35:                                               ; preds = %11
  %36 = load %"class.std::vector"*, %"class.std::vector"** %7, align 8
  ret %"class.std::vector"* %36

37:                                               ; preds = %34, %29
  %38 = landingpad { i8*, i32 }
          cleanup
  %39 = extractvalue { i8*, i32 } %38, 0
  store i8* %39, i8** %8, align 8
  %40 = extractvalue { i8*, i32 } %38, 1
  store i32 %40, i32* %9, align 4
  invoke void @__cxa_end_catch()
          to label %41 unwind label %48

41:                                               ; preds = %37
  br label %43

42:                                               ; No predecessors!
  call void @llvm.trap()
  unreachable

43:                                               ; preds = %41
  %44 = load i8*, i8** %8, align 8
  %45 = load i32, i32* %9, align 4
  %46 = insertvalue { i8*, i32 } undef, i8* %44, 0
  %47 = insertvalue { i8*, i32 } %46, i32 %45, 1
  resume { i8*, i32 } %47

48:                                               ; preds = %37
  %49 = landingpad { i8*, i32 }
          catch i8* null
  %50 = extractvalue { i8*, i32 } %49, 0
  call void @__clang_call_terminate(i8* %50) #20
  unreachable

51:                                               ; preds = %34
  unreachable
}

; Function Attrs: mustprogress noinline optnone uwtable
define linkonce_odr dso_local void @_ZSt10_ConstructISt6vectorIiSaIiEEJRKS2_EEvPT_DpOT0_(%"class.std::vector"* noundef %0, %"class.std::vector"* noundef nonnull align 8 dereferenceable(24) %1) #5 comdat {
  %3 = alloca %"class.std::vector"*, align 8
  %4 = alloca %"class.std::vector"*, align 8
  store %"class.std::vector"* %0, %"class.std::vector"** %3, align 8
  store %"class.std::vector"* %1, %"class.std::vector"** %4, align 8
  %5 = load %"class.std::vector"*, %"class.std::vector"** %3, align 8
  %6 = bitcast %"class.std::vector"* %5 to i8*
  %7 = bitcast i8* %6 to %"class.std::vector"*
  %8 = load %"class.std::vector"*, %"class.std::vector"** %4, align 8
  %9 = call noundef nonnull align 8 dereferenceable(24) %"class.std::vector"* @_ZSt7forwardIRKSt6vectorIiSaIiEEEOT_RNSt16remove_referenceIS5_E4typeE(%"class.std::vector"* noundef nonnull align 8 dereferenceable(24) %8) #3
  call void @_ZNSt6vectorIiSaIiEEC2ERKS1_(%"class.std::vector"* noundef nonnull align 8 dereferenceable(24) %7, %"class.std::vector"* noundef nonnull align 8 dereferenceable(24) %9)
  ret void
}

; Function Attrs: mustprogress noinline nounwind optnone uwtable
define linkonce_odr dso_local noundef %"class.std::vector"* @_ZSt11__addressofISt6vectorIiSaIiEEEPT_RS3_(%"class.std::vector"* noundef nonnull align 8 dereferenceable(24) %0) #9 comdat {
  %2 = alloca %"class.std::vector"*, align 8
  store %"class.std::vector"* %0, %"class.std::vector"** %2, align 8
  %3 = load %"class.std::vector"*, %"class.std::vector"** %2, align 8
  ret %"class.std::vector"* %3
}

; Function Attrs: mustprogress noinline optnone uwtable
define linkonce_odr dso_local void @_ZSt8_DestroyIPSt6vectorIiSaIiEEEvT_S4_(%"class.std::vector"* noundef %0, %"class.std::vector"* noundef %1) #5 comdat {
  %3 = alloca %"class.std::vector"*, align 8
  %4 = alloca %"class.std::vector"*, align 8
  store %"class.std::vector"* %0, %"class.std::vector"** %3, align 8
  store %"class.std::vector"* %1, %"class.std::vector"** %4, align 8
  %5 = load %"class.std::vector"*, %"class.std::vector"** %3, align 8
  %6 = load %"class.std::vector"*, %"class.std::vector"** %4, align 8
  call void @_ZNSt12_Destroy_auxILb0EE9__destroyIPSt6vectorIiSaIiEEEEvT_S6_(%"class.std::vector"* noundef %5, %"class.std::vector"* noundef %6)
  ret void
}

declare void @__cxa_rethrow()

declare void @__cxa_end_catch()

; Function Attrs: cold noreturn nounwind
declare void @llvm.trap() #15

; Function Attrs: mustprogress noinline nounwind optnone uwtable
define linkonce_odr dso_local noundef nonnull align 8 dereferenceable(24) %"class.std::vector"* @_ZSt7forwardIRKSt6vectorIiSaIiEEEOT_RNSt16remove_referenceIS5_E4typeE(%"class.std::vector"* noundef nonnull align 8 dereferenceable(24) %0) #9 comdat {
  %2 = alloca %"class.std::vector"*, align 8
  store %"class.std::vector"* %0, %"class.std::vector"** %2, align 8
  %3 = load %"class.std::vector"*, %"class.std::vector"** %2, align 8
  ret %"class.std::vector"* %3
}

; Function Attrs: mustprogress noinline optnone uwtable
define linkonce_odr dso_local void @_ZNSt12_Destroy_auxILb0EE9__destroyIPSt6vectorIiSaIiEEEEvT_S6_(%"class.std::vector"* noundef %0, %"class.std::vector"* noundef %1) #5 comdat align 2 {
  %3 = alloca %"class.std::vector"*, align 8
  %4 = alloca %"class.std::vector"*, align 8
  store %"class.std::vector"* %0, %"class.std::vector"** %3, align 8
  store %"class.std::vector"* %1, %"class.std::vector"** %4, align 8
  br label %5

5:                                                ; preds = %12, %2
  %6 = load %"class.std::vector"*, %"class.std::vector"** %3, align 8
  %7 = load %"class.std::vector"*, %"class.std::vector"** %4, align 8
  %8 = icmp ne %"class.std::vector"* %6, %7
  br i1 %8, label %9, label %15

9:                                                ; preds = %5
  %10 = load %"class.std::vector"*, %"class.std::vector"** %3, align 8
  %11 = call noundef %"class.std::vector"* @_ZSt11__addressofISt6vectorIiSaIiEEEPT_RS3_(%"class.std::vector"* noundef nonnull align 8 dereferenceable(24) %10) #3
  call void @_ZSt8_DestroyISt6vectorIiSaIiEEEvPT_(%"class.std::vector"* noundef %11)
  br label %12

12:                                               ; preds = %9
  %13 = load %"class.std::vector"*, %"class.std::vector"** %3, align 8
  %14 = getelementptr inbounds %"class.std::vector", %"class.std::vector"* %13, i32 1
  store %"class.std::vector"* %14, %"class.std::vector"** %3, align 8
  br label %5, !llvm.loop !10

15:                                               ; preds = %5
  ret void
}

; Function Attrs: mustprogress noinline nounwind optnone uwtable
define linkonce_odr dso_local void @_ZSt8_DestroyISt6vectorIiSaIiEEEvPT_(%"class.std::vector"* noundef %0) #9 comdat {
  %2 = alloca %"class.std::vector"*, align 8
  store %"class.std::vector"* %0, %"class.std::vector"** %2, align 8
  %3 = load %"class.std::vector"*, %"class.std::vector"** %2, align 8
  call void @_ZNSt6vectorIiSaIiEED2Ev(%"class.std::vector"* noundef nonnull align 8 dereferenceable(24) %3) #3
  ret void
}

; Function Attrs: mustprogress noinline nounwind optnone uwtable
define linkonce_odr dso_local noundef i64 @_ZNKSt16initializer_listISt6vectorIiSaIiEEE4sizeEv(%"class.std::initializer_list"* noundef nonnull align 8 dereferenceable(16) %0) #9 comdat align 2 {
  %2 = alloca %"class.std::initializer_list"*, align 8
  store %"class.std::initializer_list"* %0, %"class.std::initializer_list"** %2, align 8
  %3 = load %"class.std::initializer_list"*, %"class.std::initializer_list"** %2, align 8
  %4 = getelementptr inbounds %"class.std::initializer_list", %"class.std::initializer_list"* %3, i32 0, i32 1
  %5 = load i64, i64* %4, align 8
  ret i64 %5
}

; Function Attrs: mustprogress noinline optnone uwtable
define linkonce_odr dso_local void @_ZNSt12_Vector_baseISt6vectorIiSaIiEESaIS2_EE13_M_deallocateEPS2_m(%"struct.std::_Vector_base.1"* noundef nonnull align 8 dereferenceable(24) %0, %"class.std::vector"* noundef %1, i64 noundef %2) #5 comdat align 2 {
  %4 = alloca %"struct.std::_Vector_base.1"*, align 8
  %5 = alloca %"class.std::vector"*, align 8
  %6 = alloca i64, align 8
  store %"struct.std::_Vector_base.1"* %0, %"struct.std::_Vector_base.1"** %4, align 8
  store %"class.std::vector"* %1, %"class.std::vector"** %5, align 8
  store i64 %2, i64* %6, align 8
  %7 = load %"struct.std::_Vector_base.1"*, %"struct.std::_Vector_base.1"** %4, align 8
  %8 = load %"class.std::vector"*, %"class.std::vector"** %5, align 8
  %9 = icmp ne %"class.std::vector"* %8, null
  br i1 %9, label %10, label %15

10:                                               ; preds = %3
  %11 = getelementptr inbounds %"struct.std::_Vector_base.1", %"struct.std::_Vector_base.1"* %7, i32 0, i32 0
  %12 = bitcast %"struct.std::_Vector_base<std::vector<int>, std::allocator<std::vector<int>>>::_Vector_impl"* %11 to %"class.std::allocator.2"*
  %13 = load %"class.std::vector"*, %"class.std::vector"** %5, align 8
  %14 = load i64, i64* %6, align 8
  call void @_ZNSt16allocator_traitsISaISt6vectorIiSaIiEEEE10deallocateERS3_PS2_m(%"class.std::allocator.2"* noundef nonnull align 1 dereferenceable(1) %12, %"class.std::vector"* noundef %13, i64 noundef %14)
  br label %15

15:                                               ; preds = %10, %3
  ret void
}

; Function Attrs: noinline nounwind optnone uwtable
define linkonce_odr dso_local void @_ZNSt12_Vector_baseISt6vectorIiSaIiEESaIS2_EE12_Vector_implD2Ev(%"struct.std::_Vector_base<std::vector<int>, std::allocator<std::vector<int>>>::_Vector_impl"* noundef nonnull align 8 dereferenceable(24) %0) unnamed_addr #7 comdat align 2 {
  %2 = alloca %"struct.std::_Vector_base<std::vector<int>, std::allocator<std::vector<int>>>::_Vector_impl"*, align 8
  store %"struct.std::_Vector_base<std::vector<int>, std::allocator<std::vector<int>>>::_Vector_impl"* %0, %"struct.std::_Vector_base<std::vector<int>, std::allocator<std::vector<int>>>::_Vector_impl"** %2, align 8
  %3 = load %"struct.std::_Vector_base<std::vector<int>, std::allocator<std::vector<int>>>::_Vector_impl"*, %"struct.std::_Vector_base<std::vector<int>, std::allocator<std::vector<int>>>::_Vector_impl"** %2, align 8
  %4 = bitcast %"struct.std::_Vector_base<std::vector<int>, std::allocator<std::vector<int>>>::_Vector_impl"* %3 to %"class.std::allocator.2"*
  call void @_ZNSaISt6vectorIiSaIiEEED2Ev(%"class.std::allocator.2"* noundef nonnull align 1 dereferenceable(1) %4) #3
  ret void
}

; Function Attrs: mustprogress noinline optnone uwtable
define linkonce_odr dso_local void @_ZNSt16allocator_traitsISaISt6vectorIiSaIiEEEE10deallocateERS3_PS2_m(%"class.std::allocator.2"* noundef nonnull align 1 dereferenceable(1) %0, %"class.std::vector"* noundef %1, i64 noundef %2) #5 comdat align 2 {
  %4 = alloca %"class.std::allocator.2"*, align 8
  %5 = alloca %"class.std::vector"*, align 8
  %6 = alloca i64, align 8
  store %"class.std::allocator.2"* %0, %"class.std::allocator.2"** %4, align 8
  store %"class.std::vector"* %1, %"class.std::vector"** %5, align 8
  store i64 %2, i64* %6, align 8
  %7 = load %"class.std::allocator.2"*, %"class.std::allocator.2"** %4, align 8
  %8 = bitcast %"class.std::allocator.2"* %7 to %"class.__gnu_cxx::new_allocator.3"*
  %9 = load %"class.std::vector"*, %"class.std::vector"** %5, align 8
  %10 = load i64, i64* %6, align 8
  call void @_ZN9__gnu_cxx13new_allocatorISt6vectorIiSaIiEEE10deallocateEPS3_m(%"class.__gnu_cxx::new_allocator.3"* noundef nonnull align 1 dereferenceable(1) %8, %"class.std::vector"* noundef %9, i64 noundef %10)
  ret void
}

; Function Attrs: mustprogress noinline nounwind optnone uwtable
define linkonce_odr dso_local void @_ZN9__gnu_cxx13new_allocatorISt6vectorIiSaIiEEE10deallocateEPS3_m(%"class.__gnu_cxx::new_allocator.3"* noundef nonnull align 1 dereferenceable(1) %0, %"class.std::vector"* noundef %1, i64 noundef %2) #9 comdat align 2 {
  %4 = alloca %"class.__gnu_cxx::new_allocator.3"*, align 8
  %5 = alloca %"class.std::vector"*, align 8
  %6 = alloca i64, align 8
  store %"class.__gnu_cxx::new_allocator.3"* %0, %"class.__gnu_cxx::new_allocator.3"** %4, align 8
  store %"class.std::vector"* %1, %"class.std::vector"** %5, align 8
  store i64 %2, i64* %6, align 8
  %7 = load %"class.__gnu_cxx::new_allocator.3"*, %"class.__gnu_cxx::new_allocator.3"** %4, align 8
  %8 = load %"class.std::vector"*, %"class.std::vector"** %5, align 8
  %9 = bitcast %"class.std::vector"* %8 to i8*
  call void @_ZdlPv(i8* noundef %9) #3
  ret void
}

; Function Attrs: noinline nounwind optnone uwtable
define linkonce_odr dso_local void @_ZN9__gnu_cxx13new_allocatorISt6vectorIiSaIiEEED2Ev(%"class.__gnu_cxx::new_allocator.3"* noundef nonnull align 1 dereferenceable(1) %0) unnamed_addr #7 comdat align 2 {
  %2 = alloca %"class.__gnu_cxx::new_allocator.3"*, align 8
  store %"class.__gnu_cxx::new_allocator.3"* %0, %"class.__gnu_cxx::new_allocator.3"** %2, align 8
  %3 = load %"class.__gnu_cxx::new_allocator.3"*, %"class.__gnu_cxx::new_allocator.3"** %2, align 8
  ret void
}

; Function Attrs: mustprogress noinline optnone uwtable
define linkonce_odr dso_local void @_ZSt8_DestroyIPSt6vectorIiSaIiEES2_EvT_S4_RSaIT0_E(%"class.std::vector"* noundef %0, %"class.std::vector"* noundef %1, %"class.std::allocator.2"* noundef nonnull align 1 dereferenceable(1) %2) #5 comdat {
  %4 = alloca %"class.std::vector"*, align 8
  %5 = alloca %"class.std::vector"*, align 8
  %6 = alloca %"class.std::allocator.2"*, align 8
  store %"class.std::vector"* %0, %"class.std::vector"** %4, align 8
  store %"class.std::vector"* %1, %"class.std::vector"** %5, align 8
  store %"class.std::allocator.2"* %2, %"class.std::allocator.2"** %6, align 8
  %7 = load %"class.std::vector"*, %"class.std::vector"** %4, align 8
  %8 = load %"class.std::vector"*, %"class.std::vector"** %5, align 8
  call void @_ZSt8_DestroyIPSt6vectorIiSaIiEEEvT_S4_(%"class.std::vector"* noundef %7, %"class.std::vector"* noundef %8)
  ret void
}

; Function Attrs: noinline nounwind optnone uwtable
define linkonce_odr dso_local void @_ZN9__gnu_cxx17__normal_iteratorIPKiSt6vectorIiSaIiEEEC2ERKS2_(%"class.__gnu_cxx::__normal_iterator"* noundef nonnull align 8 dereferenceable(8) %0, i32** noundef nonnull align 8 dereferenceable(8) %1) unnamed_addr #7 comdat align 2 {
  %3 = alloca %"class.__gnu_cxx::__normal_iterator"*, align 8
  %4 = alloca i32**, align 8
  store %"class.__gnu_cxx::__normal_iterator"* %0, %"class.__gnu_cxx::__normal_iterator"** %3, align 8
  store i32** %1, i32*** %4, align 8
  %5 = load %"class.__gnu_cxx::__normal_iterator"*, %"class.__gnu_cxx::__normal_iterator"** %3, align 8
  %6 = getelementptr inbounds %"class.__gnu_cxx::__normal_iterator", %"class.__gnu_cxx::__normal_iterator"* %5, i32 0, i32 0
  %7 = load i32**, i32*** %4, align 8
  %8 = load i32*, i32** %7, align 8
  store i32* %8, i32** %6, align 8
  ret void
}

; Function Attrs: noinline nounwind optnone uwtable
define linkonce_odr dso_local void @_ZNSt12_Vector_baseIiSaIiEEC2ERKS0_(%"struct.std::_Vector_base"* noundef nonnull align 8 dereferenceable(24) %0, %"class.std::allocator"* noundef nonnull align 1 dereferenceable(1) %1) unnamed_addr #7 comdat align 2 {
  %3 = alloca %"struct.std::_Vector_base"*, align 8
  %4 = alloca %"class.std::allocator"*, align 8
  store %"struct.std::_Vector_base"* %0, %"struct.std::_Vector_base"** %3, align 8
  store %"class.std::allocator"* %1, %"class.std::allocator"** %4, align 8
  %5 = load %"struct.std::_Vector_base"*, %"struct.std::_Vector_base"** %3, align 8
  %6 = getelementptr inbounds %"struct.std::_Vector_base", %"struct.std::_Vector_base"* %5, i32 0, i32 0
  %7 = load %"class.std::allocator"*, %"class.std::allocator"** %4, align 8
  call void @_ZNSt12_Vector_baseIiSaIiEE12_Vector_implC2ERKS0_(%"struct.std::_Vector_base<int, std::allocator<int>>::_Vector_impl"* noundef nonnull align 8 dereferenceable(24) %6, %"class.std::allocator"* noundef nonnull align 1 dereferenceable(1) %7) #3
  ret void
}

; Function Attrs: mustprogress noinline optnone uwtable
define linkonce_odr dso_local void @_ZNSt6vectorIiSaIiEE19_M_range_initializeIN9__gnu_cxx17__normal_iteratorIPKiS1_EEEEvT_S8_St20forward_iterator_tag(%"class.std::vector"* noundef nonnull align 8 dereferenceable(24) %0, i32* %1, i32* %2) #5 comdat align 2 {
  %4 = alloca %"class.__gnu_cxx::__normal_iterator", align 8
  %5 = alloca %"class.__gnu_cxx::__normal_iterator", align 8
  %6 = alloca %"struct.std::forward_iterator_tag", align 1
  %7 = alloca %"class.std::vector"*, align 8
  %8 = alloca i64, align 8
  %9 = alloca %"class.__gnu_cxx::__normal_iterator", align 8
  %10 = alloca %"class.__gnu_cxx::__normal_iterator", align 8
  %11 = alloca %"class.__gnu_cxx::__normal_iterator", align 8
  %12 = alloca %"class.__gnu_cxx::__normal_iterator", align 8
  %13 = getelementptr inbounds %"class.__gnu_cxx::__normal_iterator", %"class.__gnu_cxx::__normal_iterator"* %4, i32 0, i32 0
  store i32* %1, i32** %13, align 8
  %14 = getelementptr inbounds %"class.__gnu_cxx::__normal_iterator", %"class.__gnu_cxx::__normal_iterator"* %5, i32 0, i32 0
  store i32* %2, i32** %14, align 8
  store %"class.std::vector"* %0, %"class.std::vector"** %7, align 8
  %15 = load %"class.std::vector"*, %"class.std::vector"** %7, align 8
  %16 = bitcast %"class.__gnu_cxx::__normal_iterator"* %9 to i8*
  %17 = bitcast %"class.__gnu_cxx::__normal_iterator"* %4 to i8*
  call void @llvm.memcpy.p0i8.p0i8.i64(i8* align 8 %16, i8* align 8 %17, i64 8, i1 false)
  %18 = bitcast %"class.__gnu_cxx::__normal_iterator"* %10 to i8*
  %19 = bitcast %"class.__gnu_cxx::__normal_iterator"* %5 to i8*
  call void @llvm.memcpy.p0i8.p0i8.i64(i8* align 8 %18, i8* align 8 %19, i64 8, i1 false)
  %20 = getelementptr inbounds %"class.__gnu_cxx::__normal_iterator", %"class.__gnu_cxx::__normal_iterator"* %9, i32 0, i32 0
  %21 = load i32*, i32** %20, align 8
  %22 = getelementptr inbounds %"class.__gnu_cxx::__normal_iterator", %"class.__gnu_cxx::__normal_iterator"* %10, i32 0, i32 0
  %23 = load i32*, i32** %22, align 8
  %24 = call noundef i64 @_ZSt8distanceIN9__gnu_cxx17__normal_iteratorIPKiSt6vectorIiSaIiEEEEENSt15iterator_traitsIT_E15difference_typeES9_S9_(i32* %21, i32* %23)
  store i64 %24, i64* %8, align 8
  %25 = bitcast %"class.std::vector"* %15 to %"struct.std::_Vector_base"*
  %26 = load i64, i64* %8, align 8
  %27 = bitcast %"class.std::vector"* %15 to %"struct.std::_Vector_base"*
  %28 = call noundef nonnull align 1 dereferenceable(1) %"class.std::allocator"* @_ZNSt12_Vector_baseIiSaIiEE19_M_get_Tp_allocatorEv(%"struct.std::_Vector_base"* noundef nonnull align 8 dereferenceable(24) %27) #3
  %29 = call noundef i64 @_ZNSt6vectorIiSaIiEE17_S_check_init_lenEmRKS0_(i64 noundef %26, %"class.std::allocator"* noundef nonnull align 1 dereferenceable(1) %28)
  %30 = call noundef i32* @_ZNSt12_Vector_baseIiSaIiEE11_M_allocateEm(%"struct.std::_Vector_base"* noundef nonnull align 8 dereferenceable(24) %25, i64 noundef %29)
  %31 = bitcast %"class.std::vector"* %15 to %"struct.std::_Vector_base"*
  %32 = getelementptr inbounds %"struct.std::_Vector_base", %"struct.std::_Vector_base"* %31, i32 0, i32 0
  %33 = bitcast %"struct.std::_Vector_base<int, std::allocator<int>>::_Vector_impl"* %32 to %"struct.std::_Vector_base<int, std::allocator<int>>::_Vector_impl_data"*
  %34 = getelementptr inbounds %"struct.std::_Vector_base<int, std::allocator<int>>::_Vector_impl_data", %"struct.std::_Vector_base<int, std::allocator<int>>::_Vector_impl_data"* %33, i32 0, i32 0
  store i32* %30, i32** %34, align 8
  %35 = bitcast %"class.std::vector"* %15 to %"struct.std::_Vector_base"*
  %36 = getelementptr inbounds %"struct.std::_Vector_base", %"struct.std::_Vector_base"* %35, i32 0, i32 0
  %37 = bitcast %"struct.std::_Vector_base<int, std::allocator<int>>::_Vector_impl"* %36 to %"struct.std::_Vector_base<int, std::allocator<int>>::_Vector_impl_data"*
  %38 = getelementptr inbounds %"struct.std::_Vector_base<int, std::allocator<int>>::_Vector_impl_data", %"struct.std::_Vector_base<int, std::allocator<int>>::_Vector_impl_data"* %37, i32 0, i32 0
  %39 = load i32*, i32** %38, align 8
  %40 = load i64, i64* %8, align 8
  %41 = getelementptr inbounds i32, i32* %39, i64 %40
  %42 = bitcast %"class.std::vector"* %15 to %"struct.std::_Vector_base"*
  %43 = getelementptr inbounds %"struct.std::_Vector_base", %"struct.std::_Vector_base"* %42, i32 0, i32 0
  %44 = bitcast %"struct.std::_Vector_base<int, std::allocator<int>>::_Vector_impl"* %43 to %"struct.std::_Vector_base<int, std::allocator<int>>::_Vector_impl_data"*
  %45 = getelementptr inbounds %"struct.std::_Vector_base<int, std::allocator<int>>::_Vector_impl_data", %"struct.std::_Vector_base<int, std::allocator<int>>::_Vector_impl_data"* %44, i32 0, i32 2
  store i32* %41, i32** %45, align 8
  %46 = bitcast %"class.__gnu_cxx::__normal_iterator"* %11 to i8*
  %47 = bitcast %"class.__gnu_cxx::__normal_iterator"* %4 to i8*
  call void @llvm.memcpy.p0i8.p0i8.i64(i8* align 8 %46, i8* align 8 %47, i64 8, i1 false)
  %48 = bitcast %"class.__gnu_cxx::__normal_iterator"* %12 to i8*
  %49 = bitcast %"class.__gnu_cxx::__normal_iterator"* %5 to i8*
  call void @llvm.memcpy.p0i8.p0i8.i64(i8* align 8 %48, i8* align 8 %49, i64 8, i1 false)
  %50 = bitcast %"class.std::vector"* %15 to %"struct.std::_Vector_base"*
  %51 = getelementptr inbounds %"struct.std::_Vector_base", %"struct.std::_Vector_base"* %50, i32 0, i32 0
  %52 = bitcast %"struct.std::_Vector_base<int, std::allocator<int>>::_Vector_impl"* %51 to %"struct.std::_Vector_base<int, std::allocator<int>>::_Vector_impl_data"*
  %53 = getelementptr inbounds %"struct.std::_Vector_base<int, std::allocator<int>>::_Vector_impl_data", %"struct.std::_Vector_base<int, std::allocator<int>>::_Vector_impl_data"* %52, i32 0, i32 0
  %54 = load i32*, i32** %53, align 8
  %55 = bitcast %"class.std::vector"* %15 to %"struct.std::_Vector_base"*
  %56 = call noundef nonnull align 1 dereferenceable(1) %"class.std::allocator"* @_ZNSt12_Vector_baseIiSaIiEE19_M_get_Tp_allocatorEv(%"struct.std::_Vector_base"* noundef nonnull align 8 dereferenceable(24) %55) #3
  %57 = getelementptr inbounds %"class.__gnu_cxx::__normal_iterator", %"class.__gnu_cxx::__normal_iterator"* %11, i32 0, i32 0
  %58 = load i32*, i32** %57, align 8
  %59 = getelementptr inbounds %"class.__gnu_cxx::__normal_iterator", %"class.__gnu_cxx::__normal_iterator"* %12, i32 0, i32 0
  %60 = load i32*, i32** %59, align 8
  %61 = call noundef i32* @_ZSt22__uninitialized_copy_aIN9__gnu_cxx17__normal_iteratorIPKiSt6vectorIiSaIiEEEEPiiET0_T_SA_S9_RSaIT1_E(i32* %58, i32* %60, i32* noundef %54, %"class.std::allocator"* noundef nonnull align 1 dereferenceable(1) %56)
  %62 = bitcast %"class.std::vector"* %15 to %"struct.std::_Vector_base"*
  %63 = getelementptr inbounds %"struct.std::_Vector_base", %"struct.std::_Vector_base"* %62, i32 0, i32 0
  %64 = bitcast %"struct.std::_Vector_base<int, std::allocator<int>>::_Vector_impl"* %63 to %"struct.std::_Vector_base<int, std::allocator<int>>::_Vector_impl_data"*
  %65 = getelementptr inbounds %"struct.std::_Vector_base<int, std::allocator<int>>::_Vector_impl_data", %"struct.std::_Vector_base<int, std::allocator<int>>::_Vector_impl_data"* %64, i32 0, i32 1
  store i32* %61, i32** %65, align 8
  ret void
}

; Function Attrs: mustprogress noinline nounwind optnone uwtable
define linkonce_odr dso_local void @_ZSt19__iterator_categoryIN9__gnu_cxx17__normal_iteratorIPKiSt6vectorIiSaIiEEEEENSt15iterator_traitsIT_E17iterator_categoryERKS9_(%"class.__gnu_cxx::__normal_iterator"* noundef nonnull align 8 dereferenceable(8) %0) #9 comdat {
  %2 = alloca %"class.__gnu_cxx::__normal_iterator"*, align 8
  store %"class.__gnu_cxx::__normal_iterator"* %0, %"class.__gnu_cxx::__normal_iterator"** %2, align 8
  ret void
}

; Function Attrs: mustprogress noinline optnone uwtable
define linkonce_odr dso_local noundef i64 @_ZSt8distanceIN9__gnu_cxx17__normal_iteratorIPKiSt6vectorIiSaIiEEEEENSt15iterator_traitsIT_E15difference_typeES9_S9_(i32* %0, i32* %1) #5 comdat {
  %3 = alloca %"class.__gnu_cxx::__normal_iterator", align 8
  %4 = alloca %"class.__gnu_cxx::__normal_iterator", align 8
  %5 = alloca %"class.__gnu_cxx::__normal_iterator", align 8
  %6 = alloca %"class.__gnu_cxx::__normal_iterator", align 8
  %7 = alloca %"struct.std::random_access_iterator_tag", align 1
  %8 = alloca %"struct.std::random_access_iterator_tag", align 1
  %9 = getelementptr inbounds %"class.__gnu_cxx::__normal_iterator", %"class.__gnu_cxx::__normal_iterator"* %3, i32 0, i32 0
  store i32* %0, i32** %9, align 8
  %10 = getelementptr inbounds %"class.__gnu_cxx::__normal_iterator", %"class.__gnu_cxx::__normal_iterator"* %4, i32 0, i32 0
  store i32* %1, i32** %10, align 8
  %11 = bitcast %"class.__gnu_cxx::__normal_iterator"* %5 to i8*
  %12 = bitcast %"class.__gnu_cxx::__normal_iterator"* %3 to i8*
  call void @llvm.memcpy.p0i8.p0i8.i64(i8* align 8 %11, i8* align 8 %12, i64 8, i1 false)
  %13 = bitcast %"class.__gnu_cxx::__normal_iterator"* %6 to i8*
  %14 = bitcast %"class.__gnu_cxx::__normal_iterator"* %4 to i8*
  call void @llvm.memcpy.p0i8.p0i8.i64(i8* align 8 %13, i8* align 8 %14, i64 8, i1 false)
  call void @_ZSt19__iterator_categoryIN9__gnu_cxx17__normal_iteratorIPKiSt6vectorIiSaIiEEEEENSt15iterator_traitsIT_E17iterator_categoryERKS9_(%"class.__gnu_cxx::__normal_iterator"* noundef nonnull align 8 dereferenceable(8) %3)
  %15 = getelementptr inbounds %"class.__gnu_cxx::__normal_iterator", %"class.__gnu_cxx::__normal_iterator"* %5, i32 0, i32 0
  %16 = load i32*, i32** %15, align 8
  %17 = getelementptr inbounds %"class.__gnu_cxx::__normal_iterator", %"class.__gnu_cxx::__normal_iterator"* %6, i32 0, i32 0
  %18 = load i32*, i32** %17, align 8
  %19 = call noundef i64 @_ZSt10__distanceIN9__gnu_cxx17__normal_iteratorIPKiSt6vectorIiSaIiEEEEENSt15iterator_traitsIT_E15difference_typeES9_S9_St26random_access_iterator_tag(i32* %16, i32* %18)
  ret i64 %19
}

; Function Attrs: mustprogress noinline nounwind optnone uwtable
define linkonce_odr dso_local noundef i64 @_ZSt10__distanceIN9__gnu_cxx17__normal_iteratorIPKiSt6vectorIiSaIiEEEEENSt15iterator_traitsIT_E15difference_typeES9_S9_St26random_access_iterator_tag(i32* %0, i32* %1) #9 comdat {
  %3 = alloca %"class.__gnu_cxx::__normal_iterator", align 8
  %4 = alloca %"class.__gnu_cxx::__normal_iterator", align 8
  %5 = alloca %"struct.std::random_access_iterator_tag", align 1
  %6 = getelementptr inbounds %"class.__gnu_cxx::__normal_iterator", %"class.__gnu_cxx::__normal_iterator"* %3, i32 0, i32 0
  store i32* %0, i32** %6, align 8
  %7 = getelementptr inbounds %"class.__gnu_cxx::__normal_iterator", %"class.__gnu_cxx::__normal_iterator"* %4, i32 0, i32 0
  store i32* %1, i32** %7, align 8
  %8 = call noundef i64 @_ZN9__gnu_cxxmiIPKiSt6vectorIiSaIiEEEENS_17__normal_iteratorIT_T0_E15difference_typeERKS9_SC_(%"class.__gnu_cxx::__normal_iterator"* noundef nonnull align 8 dereferenceable(8) %4, %"class.__gnu_cxx::__normal_iterator"* noundef nonnull align 8 dereferenceable(8) %3) #3
  ret i64 %8
}

; Function Attrs: mustprogress noinline nounwind optnone uwtable
define linkonce_odr dso_local noundef i64 @_ZN9__gnu_cxxmiIPKiSt6vectorIiSaIiEEEENS_17__normal_iteratorIT_T0_E15difference_typeERKS9_SC_(%"class.__gnu_cxx::__normal_iterator"* noundef nonnull align 8 dereferenceable(8) %0, %"class.__gnu_cxx::__normal_iterator"* noundef nonnull align 8 dereferenceable(8) %1) #9 comdat {
  %3 = alloca %"class.__gnu_cxx::__normal_iterator"*, align 8
  %4 = alloca %"class.__gnu_cxx::__normal_iterator"*, align 8
  store %"class.__gnu_cxx::__normal_iterator"* %0, %"class.__gnu_cxx::__normal_iterator"** %3, align 8
  store %"class.__gnu_cxx::__normal_iterator"* %1, %"class.__gnu_cxx::__normal_iterator"** %4, align 8
  %5 = load %"class.__gnu_cxx::__normal_iterator"*, %"class.__gnu_cxx::__normal_iterator"** %3, align 8
  %6 = call noundef nonnull align 8 dereferenceable(8) i32** @_ZNK9__gnu_cxx17__normal_iteratorIPKiSt6vectorIiSaIiEEE4baseEv(%"class.__gnu_cxx::__normal_iterator"* noundef nonnull align 8 dereferenceable(8) %5) #3
  %7 = load i32*, i32** %6, align 8
  %8 = load %"class.__gnu_cxx::__normal_iterator"*, %"class.__gnu_cxx::__normal_iterator"** %4, align 8
  %9 = call noundef nonnull align 8 dereferenceable(8) i32** @_ZNK9__gnu_cxx17__normal_iteratorIPKiSt6vectorIiSaIiEEE4baseEv(%"class.__gnu_cxx::__normal_iterator"* noundef nonnull align 8 dereferenceable(8) %8) #3
  %10 = load i32*, i32** %9, align 8
  %11 = ptrtoint i32* %7 to i64
  %12 = ptrtoint i32* %10 to i64
  %13 = sub i64 %11, %12
  %14 = sdiv exact i64 %13, 4
  ret i64 %14
}

; Function Attrs: argmemonly nofree nounwind willreturn writeonly
declare void @llvm.memset.p0i8.i64(i8* nocapture writeonly, i8, i64, i1 immarg) #16

; Function Attrs: noinline nounwind optnone uwtable
define linkonce_odr dso_local void @_ZNSt14_Function_baseC2Ev(%"class.std::_Function_base"* noundef nonnull align 8 dereferenceable(24) %0) unnamed_addr #7 comdat align 2 {
  %2 = alloca %"class.std::_Function_base"*, align 8
  store %"class.std::_Function_base"* %0, %"class.std::_Function_base"** %2, align 8
  %3 = load %"class.std::_Function_base"*, %"class.std::_Function_base"** %2, align 8
  %4 = getelementptr inbounds %"class.std::_Function_base", %"class.std::_Function_base"* %3, i32 0, i32 0
  %5 = bitcast %"union.std::_Any_data"* %4 to %"union.std::_Nocopy_types"*
  %6 = bitcast %"union.std::_Nocopy_types"* %5 to i8**
  store i8* null, i8** %6, align 8
  %7 = getelementptr inbounds %"class.std::_Function_base", %"class.std::_Function_base"* %3, i32 0, i32 1
  store i1 (%"union.std::_Any_data"*, %"union.std::_Any_data"*, i32)* null, i1 (%"union.std::_Any_data"*, %"union.std::_Any_data"*, i32)** %7, align 8
  ret void
}

; Function Attrs: mustprogress noinline nounwind optnone uwtable
define linkonce_odr dso_local noundef zeroext i1 @_ZNSt14_Function_base13_Base_managerIZ18partition_filteredRKSt6vectorIiSaIiEESt8functionIFvRKS1_IS3_SaIS3_EEEEiiEUlSA_E_E21_M_not_empty_functionISD_EEbRKT_(%class.anon.5* noundef nonnull align 8 dereferenceable(32) %0) #9 comdat align 2 {
  %2 = alloca %class.anon.5*, align 8
  store %class.anon.5* %0, %class.anon.5** %2, align 8
  ret i1 true
}

; Function Attrs: mustprogress noinline optnone uwtable
define linkonce_odr dso_local void @_ZNSt14_Function_base13_Base_managerIZ18partition_filteredRKSt6vectorIiSaIiEESt8functionIFvRKS1_IS3_SaIS3_EEEEiiEUlSA_E_E15_M_init_functorIRSD_EEvRSt9_Any_dataOT_(%"union.std::_Any_data"* noundef nonnull align 8 dereferenceable(16) %0, %class.anon.5* noundef nonnull align 8 dereferenceable(32) %1) #5 comdat align 2 {
  %3 = alloca %"union.std::_Any_data"*, align 8
  %4 = alloca %class.anon.5*, align 8
  %5 = alloca %"struct.std::integral_constant", align 1
  store %"union.std::_Any_data"* %0, %"union.std::_Any_data"** %3, align 8
  store %class.anon.5* %1, %class.anon.5** %4, align 8
  %6 = load %"union.std::_Any_data"*, %"union.std::_Any_data"** %3, align 8
  %7 = load %class.anon.5*, %class.anon.5** %4, align 8
  %8 = call noundef nonnull align 8 dereferenceable(32) %class.anon.5* @_ZSt7forwardIRZ18partition_filteredRKSt6vectorIiSaIiEESt8functionIFvRKS0_IS2_SaIS2_EEEEiiEUlS9_E_EOT_RNSt16remove_referenceISE_E4typeE(%class.anon.5* noundef nonnull align 8 dereferenceable(32) %7) #3
  call void @_ZNSt14_Function_base13_Base_managerIZ18partition_filteredRKSt6vectorIiSaIiEESt8functionIFvRKS1_IS3_SaIS3_EEEEiiEUlSA_E_E9_M_createIRSD_EEvRSt9_Any_dataOT_St17integral_constantIbLb0EE(%"union.std::_Any_data"* noundef nonnull align 8 dereferenceable(16) %6, %class.anon.5* noundef nonnull align 8 dereferenceable(32) %8)
  ret void
}

; Function Attrs: mustprogress noinline nounwind optnone uwtable
define linkonce_odr dso_local noundef nonnull align 8 dereferenceable(32) %class.anon.5* @_ZSt7forwardIRZ18partition_filteredRKSt6vectorIiSaIiEESt8functionIFvRKS0_IS2_SaIS2_EEEEiiEUlS9_E_EOT_RNSt16remove_referenceISE_E4typeE(%class.anon.5* noundef nonnull align 8 dereferenceable(32) %0) #9 comdat {
  %2 = alloca %class.anon.5*, align 8
  store %class.anon.5* %0, %class.anon.5** %2, align 8
  %3 = load %class.anon.5*, %class.anon.5** %2, align 8
  ret %class.anon.5* %3
}

; Function Attrs: mustprogress noinline optnone uwtable
define linkonce_odr dso_local void @_ZNSt17_Function_handlerIFvRKSt6vectorIS0_IiSaIiEESaIS2_EEEZ18partition_filteredRKS2_St8functionIS7_EiiEUlS6_E_E9_M_invokeERKSt9_Any_dataS6_(%"union.std::_Any_data"* noundef nonnull align 8 dereferenceable(16) %0, %"class.std::vector.0"* noundef nonnull align 8 dereferenceable(24) %1) #5 comdat align 2 {
  %3 = alloca %"union.std::_Any_data"*, align 8
  %4 = alloca %"class.std::vector.0"*, align 8
  store %"union.std::_Any_data"* %0, %"union.std::_Any_data"** %3, align 8
  store %"class.std::vector.0"* %1, %"class.std::vector.0"** %4, align 8
  %5 = load %"union.std::_Any_data"*, %"union.std::_Any_data"** %3, align 8
  %6 = call noundef %class.anon.5* @_ZNSt14_Function_base13_Base_managerIZ18partition_filteredRKSt6vectorIiSaIiEESt8functionIFvRKS1_IS3_SaIS3_EEEEiiEUlSA_E_E14_M_get_pointerERKSt9_Any_data(%"union.std::_Any_data"* noundef nonnull align 8 dereferenceable(16) %5)
  %7 = load %"class.std::vector.0"*, %"class.std::vector.0"** %4, align 8
  %8 = call noundef nonnull align 8 dereferenceable(24) %"class.std::vector.0"* @_ZSt7forwardIRKSt6vectorIS0_IiSaIiEESaIS2_EEEOT_RNSt16remove_referenceIS7_E4typeE(%"class.std::vector.0"* noundef nonnull align 8 dereferenceable(24) %7) #3
  call void @_ZSt10__invoke_rIvRZ18partition_filteredRKSt6vectorIiSaIiEESt8functionIFvRKS0_IS2_SaIS2_EEEEiiEUlS9_E_JS9_EENSt9enable_ifIX16is_invocable_r_vIT_T0_DpT1_EESF_E4typeEOSG_DpOSH_(%class.anon.5* noundef nonnull align 8 dereferenceable(32) %6, %"class.std::vector.0"* noundef nonnull align 8 dereferenceable(24) %8)
  ret void
}

; Function Attrs: mustprogress noinline optnone uwtable
define linkonce_odr dso_local noundef zeroext i1 @_ZNSt17_Function_handlerIFvRKSt6vectorIS0_IiSaIiEESaIS2_EEEZ18partition_filteredRKS2_St8functionIS7_EiiEUlS6_E_E10_M_managerERSt9_Any_dataRKSE_St18_Manager_operation(%"union.std::_Any_data"* noundef nonnull align 8 dereferenceable(16) %0, %"union.std::_Any_data"* noundef nonnull align 8 dereferenceable(16) %1, i32 noundef %2) #5 comdat align 2 {
  %4 = alloca %"union.std::_Any_data"*, align 8
  %5 = alloca %"union.std::_Any_data"*, align 8
  %6 = alloca i32, align 4
  store %"union.std::_Any_data"* %0, %"union.std::_Any_data"** %4, align 8
  store %"union.std::_Any_data"* %1, %"union.std::_Any_data"** %5, align 8
  store i32 %2, i32* %6, align 4
  %7 = load i32, i32* %6, align 4
  switch i32 %7, label %16 [
    i32 0, label %8
    i32 1, label %11
  ]

8:                                                ; preds = %3
  %9 = load %"union.std::_Any_data"*, %"union.std::_Any_data"** %4, align 8
  %10 = call noundef nonnull align 8 dereferenceable(8) %"class.std::type_info"** @_ZNSt9_Any_data9_M_accessIPKSt9type_infoEERT_v(%"union.std::_Any_data"* noundef nonnull align 8 dereferenceable(16) %9)
  store %"class.std::type_info"* bitcast ({ i8*, i8* }* @_ZTIZ18partition_filteredRKSt6vectorIiSaIiEESt8functionIFvRKS_IS1_SaIS1_EEEEiiEUlS8_E_ to %"class.std::type_info"*), %"class.std::type_info"** %10, align 8
  br label %21

11:                                               ; preds = %3
  %12 = load %"union.std::_Any_data"*, %"union.std::_Any_data"** %5, align 8
  %13 = call noundef %class.anon.5* @_ZNSt14_Function_base13_Base_managerIZ18partition_filteredRKSt6vectorIiSaIiEESt8functionIFvRKS1_IS3_SaIS3_EEEEiiEUlSA_E_E14_M_get_pointerERKSt9_Any_data(%"union.std::_Any_data"* noundef nonnull align 8 dereferenceable(16) %12)
  %14 = load %"union.std::_Any_data"*, %"union.std::_Any_data"** %4, align 8
  %15 = call noundef nonnull align 8 dereferenceable(8) %class.anon.5** @_ZNSt9_Any_data9_M_accessIPZ18partition_filteredRKSt6vectorIiSaIiEESt8functionIFvRKS1_IS3_SaIS3_EEEEiiEUlSA_E_EERT_v(%"union.std::_Any_data"* noundef nonnull align 8 dereferenceable(16) %14)
  store %class.anon.5* %13, %class.anon.5** %15, align 8
  br label %21

16:                                               ; preds = %3
  %17 = load %"union.std::_Any_data"*, %"union.std::_Any_data"** %4, align 8
  %18 = load %"union.std::_Any_data"*, %"union.std::_Any_data"** %5, align 8
  %19 = load i32, i32* %6, align 4
  %20 = call noundef zeroext i1 @_ZNSt14_Function_base13_Base_managerIZ18partition_filteredRKSt6vectorIiSaIiEESt8functionIFvRKS1_IS3_SaIS3_EEEEiiEUlSA_E_E10_M_managerERSt9_Any_dataRKSF_St18_Manager_operation(%"union.std::_Any_data"* noundef nonnull align 8 dereferenceable(16) %17, %"union.std::_Any_data"* noundef nonnull align 8 dereferenceable(16) %18, i32 noundef %19)
  br label %21

21:                                               ; preds = %16, %11, %8
  ret i1 false
}

; Function Attrs: noinline nounwind optnone uwtable
define linkonce_odr dso_local void @_ZNSt14_Function_baseD2Ev(%"class.std::_Function_base"* noundef nonnull align 8 dereferenceable(24) %0) unnamed_addr #7 comdat align 2 personality i8* bitcast (i32 (...)* @__gxx_personality_v0 to i8*) {
  %2 = alloca %"class.std::_Function_base"*, align 8
  store %"class.std::_Function_base"* %0, %"class.std::_Function_base"** %2, align 8
  %3 = load %"class.std::_Function_base"*, %"class.std::_Function_base"** %2, align 8
  %4 = getelementptr inbounds %"class.std::_Function_base", %"class.std::_Function_base"* %3, i32 0, i32 1
  %5 = load i1 (%"union.std::_Any_data"*, %"union.std::_Any_data"*, i32)*, i1 (%"union.std::_Any_data"*, %"union.std::_Any_data"*, i32)** %4, align 8
  %6 = icmp ne i1 (%"union.std::_Any_data"*, %"union.std::_Any_data"*, i32)* %5, null
  br i1 %6, label %7, label %14

7:                                                ; preds = %1
  %8 = getelementptr inbounds %"class.std::_Function_base", %"class.std::_Function_base"* %3, i32 0, i32 1
  %9 = load i1 (%"union.std::_Any_data"*, %"union.std::_Any_data"*, i32)*, i1 (%"union.std::_Any_data"*, %"union.std::_Any_data"*, i32)** %8, align 8
  %10 = getelementptr inbounds %"class.std::_Function_base", %"class.std::_Function_base"* %3, i32 0, i32 0
  %11 = getelementptr inbounds %"class.std::_Function_base", %"class.std::_Function_base"* %3, i32 0, i32 0
  %12 = invoke noundef zeroext i1 %9(%"union.std::_Any_data"* noundef nonnull align 8 dereferenceable(16) %10, %"union.std::_Any_data"* noundef nonnull align 8 dereferenceable(16) %11, i32 noundef 3)
          to label %13 unwind label %15

13:                                               ; preds = %7
  br label %14

14:                                               ; preds = %13, %1
  ret void

15:                                               ; preds = %7
  %16 = landingpad { i8*, i32 }
          catch i8* null
  %17 = extractvalue { i8*, i32 } %16, 0
  call void @__clang_call_terminate(i8* %17) #20
  unreachable
}

; Function Attrs: mustprogress noinline optnone uwtable
define linkonce_odr dso_local void @_ZNSt14_Function_base13_Base_managerIZ18partition_filteredRKSt6vectorIiSaIiEESt8functionIFvRKS1_IS3_SaIS3_EEEEiiEUlSA_E_E9_M_createIRSD_EEvRSt9_Any_dataOT_St17integral_constantIbLb0EE(%"union.std::_Any_data"* noundef nonnull align 8 dereferenceable(16) %0, %class.anon.5* noundef nonnull align 8 dereferenceable(32) %1) #5 comdat align 2 {
  %3 = alloca %"struct.std::integral_constant", align 1
  %4 = alloca %"union.std::_Any_data"*, align 8
  %5 = alloca %class.anon.5*, align 8
  store %"union.std::_Any_data"* %0, %"union.std::_Any_data"** %4, align 8
  store %class.anon.5* %1, %class.anon.5** %5, align 8
  %6 = call noalias noundef nonnull i8* @_Znwm(i64 noundef 32) #23
  %7 = bitcast i8* %6 to %class.anon.5*
  %8 = load %class.anon.5*, %class.anon.5** %5, align 8
  %9 = call noundef nonnull align 8 dereferenceable(32) %class.anon.5* @_ZSt7forwardIRZ18partition_filteredRKSt6vectorIiSaIiEESt8functionIFvRKS0_IS2_SaIS2_EEEEiiEUlS9_E_EOT_RNSt16remove_referenceISE_E4typeE(%class.anon.5* noundef nonnull align 8 dereferenceable(32) %8) #3
  %10 = bitcast %class.anon.5* %7 to i8*
  %11 = bitcast %class.anon.5* %9 to i8*
  call void @llvm.memcpy.p0i8.p0i8.i64(i8* align 16 %10, i8* align 8 %11, i64 32, i1 false)
  %12 = load %"union.std::_Any_data"*, %"union.std::_Any_data"** %4, align 8
  %13 = call noundef nonnull align 8 dereferenceable(8) %class.anon.5** @_ZNSt9_Any_data9_M_accessIPZ18partition_filteredRKSt6vectorIiSaIiEESt8functionIFvRKS1_IS3_SaIS3_EEEEiiEUlSA_E_EERT_v(%"union.std::_Any_data"* noundef nonnull align 8 dereferenceable(16) %12)
  store %class.anon.5* %7, %class.anon.5** %13, align 8
  ret void
}

; Function Attrs: mustprogress noinline optnone uwtable
define linkonce_odr dso_local noundef nonnull align 8 dereferenceable(8) %class.anon.5** @_ZNSt9_Any_data9_M_accessIPZ18partition_filteredRKSt6vectorIiSaIiEESt8functionIFvRKS1_IS3_SaIS3_EEEEiiEUlSA_E_EERT_v(%"union.std::_Any_data"* noundef nonnull align 8 dereferenceable(16) %0) #5 comdat align 2 {
  %2 = alloca %"union.std::_Any_data"*, align 8
  store %"union.std::_Any_data"* %0, %"union.std::_Any_data"** %2, align 8
  %3 = load %"union.std::_Any_data"*, %"union.std::_Any_data"** %2, align 8
  %4 = call noundef i8* @_ZNSt9_Any_data9_M_accessEv(%"union.std::_Any_data"* noundef nonnull align 8 dereferenceable(16) %3)
  %5 = bitcast i8* %4 to %class.anon.5**
  ret %class.anon.5** %5
}

; Function Attrs: mustprogress noinline nounwind optnone uwtable
define linkonce_odr dso_local noundef i8* @_ZNSt9_Any_data9_M_accessEv(%"union.std::_Any_data"* noundef nonnull align 8 dereferenceable(16) %0) #9 comdat align 2 {
  %2 = alloca %"union.std::_Any_data"*, align 8
  store %"union.std::_Any_data"* %0, %"union.std::_Any_data"** %2, align 8
  %3 = load %"union.std::_Any_data"*, %"union.std::_Any_data"** %2, align 8
  %4 = bitcast %"union.std::_Any_data"* %3 to [16 x i8]*
  %5 = getelementptr inbounds [16 x i8], [16 x i8]* %4, i64 0, i64 0
  ret i8* %5
}

; Function Attrs: mustprogress noinline optnone uwtable
define linkonce_odr dso_local void @_ZSt10__invoke_rIvRZ18partition_filteredRKSt6vectorIiSaIiEESt8functionIFvRKS0_IS2_SaIS2_EEEEiiEUlS9_E_JS9_EENSt9enable_ifIX16is_invocable_r_vIT_T0_DpT1_EESF_E4typeEOSG_DpOSH_(%class.anon.5* noundef nonnull align 8 dereferenceable(32) %0, %"class.std::vector.0"* noundef nonnull align 8 dereferenceable(24) %1) #5 comdat {
  %3 = alloca %class.anon.5*, align 8
  %4 = alloca %"class.std::vector.0"*, align 8
  %5 = alloca %"struct.std::__invoke_other", align 1
  store %class.anon.5* %0, %class.anon.5** %3, align 8
  store %"class.std::vector.0"* %1, %"class.std::vector.0"** %4, align 8
  %6 = load %class.anon.5*, %class.anon.5** %3, align 8
  %7 = call noundef nonnull align 8 dereferenceable(32) %class.anon.5* @_ZSt7forwardIRZ18partition_filteredRKSt6vectorIiSaIiEESt8functionIFvRKS0_IS2_SaIS2_EEEEiiEUlS9_E_EOT_RNSt16remove_referenceISE_E4typeE(%class.anon.5* noundef nonnull align 8 dereferenceable(32) %6) #3
  %8 = load %"class.std::vector.0"*, %"class.std::vector.0"** %4, align 8
  %9 = call noundef nonnull align 8 dereferenceable(24) %"class.std::vector.0"* @_ZSt7forwardIRKSt6vectorIS0_IiSaIiEESaIS2_EEEOT_RNSt16remove_referenceIS7_E4typeE(%"class.std::vector.0"* noundef nonnull align 8 dereferenceable(24) %8) #3
  call void @_ZSt13__invoke_implIvRZ18partition_filteredRKSt6vectorIiSaIiEESt8functionIFvRKS0_IS2_SaIS2_EEEEiiEUlS9_E_JS9_EET_St14__invoke_otherOT0_DpOT1_(%class.anon.5* noundef nonnull align 8 dereferenceable(32) %7, %"class.std::vector.0"* noundef nonnull align 8 dereferenceable(24) %9)
  ret void
}

; Function Attrs: mustprogress noinline optnone uwtable
define linkonce_odr dso_local noundef %class.anon.5* @_ZNSt14_Function_base13_Base_managerIZ18partition_filteredRKSt6vectorIiSaIiEESt8functionIFvRKS1_IS3_SaIS3_EEEEiiEUlSA_E_E14_M_get_pointerERKSt9_Any_data(%"union.std::_Any_data"* noundef nonnull align 8 dereferenceable(16) %0) #5 comdat align 2 {
  %2 = alloca %"union.std::_Any_data"*, align 8
  store %"union.std::_Any_data"* %0, %"union.std::_Any_data"** %2, align 8
  %3 = load %"union.std::_Any_data"*, %"union.std::_Any_data"** %2, align 8
  %4 = call noundef nonnull align 8 dereferenceable(8) %class.anon.5** @_ZNKSt9_Any_data9_M_accessIPZ18partition_filteredRKSt6vectorIiSaIiEESt8functionIFvRKS1_IS3_SaIS3_EEEEiiEUlSA_E_EERKT_v(%"union.std::_Any_data"* noundef nonnull align 8 dereferenceable(16) %3)
  %5 = load %class.anon.5*, %class.anon.5** %4, align 8
  ret %class.anon.5* %5
}

; Function Attrs: mustprogress noinline optnone uwtable
define linkonce_odr dso_local void @_ZSt13__invoke_implIvRZ18partition_filteredRKSt6vectorIiSaIiEESt8functionIFvRKS0_IS2_SaIS2_EEEEiiEUlS9_E_JS9_EET_St14__invoke_otherOT0_DpOT1_(%class.anon.5* noundef nonnull align 8 dereferenceable(32) %0, %"class.std::vector.0"* noundef nonnull align 8 dereferenceable(24) %1) #5 comdat {
  %3 = alloca %"struct.std::__invoke_other", align 1
  %4 = alloca %class.anon.5*, align 8
  %5 = alloca %"class.std::vector.0"*, align 8
  store %class.anon.5* %0, %class.anon.5** %4, align 8
  store %"class.std::vector.0"* %1, %"class.std::vector.0"** %5, align 8
  %6 = load %class.anon.5*, %class.anon.5** %4, align 8
  %7 = call noundef nonnull align 8 dereferenceable(32) %class.anon.5* @_ZSt7forwardIRZ18partition_filteredRKSt6vectorIiSaIiEESt8functionIFvRKS0_IS2_SaIS2_EEEEiiEUlS9_E_EOT_RNSt16remove_referenceISE_E4typeE(%class.anon.5* noundef nonnull align 8 dereferenceable(32) %6) #3
  %8 = load %"class.std::vector.0"*, %"class.std::vector.0"** %5, align 8
